
build/kernel.bin:     file format elf32-i386


Disassembly of section .text:

c0001500 <main>:
c0001500:	55                   	push   %ebp
c0001501:	89 e5                	mov    %esp,%ebp
c0001503:	83 e4 f0             	and    $0xfffffff0,%esp
c0001506:	83 ec 10             	sub    $0x10,%esp
c0001509:	c7 04 24 f8 30 00 c0 	movl   $0xc00030f8,(%esp)
c0001510:	e8 0d 0a 00 00       	call   c0001f22 <put_str>
c0001515:	e8 46 00 00 00       	call   c0001560 <init_all>
c000151a:	c7 44 24 0c 06 31 00 	movl   $0xc0003106,0xc(%esp)
c0001521:	c0 
c0001522:	c7 44 24 08 45 15 00 	movl   $0xc0001545,0x8(%esp)
c0001529:	c0 
c000152a:	c7 44 24 04 1f 00 00 	movl   $0x1f,0x4(%esp)
c0001531:	00 
c0001532:	c7 04 24 0b 31 00 c0 	movl   $0xc000310b,(%esp)
c0001539:	e8 54 18 00 00       	call   c0002d92 <thread_start>
c000153e:	b8 00 00 00 00       	mov    $0x0,%eax
c0001543:	c9                   	leave  
c0001544:	c3                   	ret    

c0001545 <k_thread_a>:
c0001545:	55                   	push   %ebp
c0001546:	89 e5                	mov    %esp,%ebp
c0001548:	83 ec 28             	sub    $0x28,%esp
c000154b:	8b 45 08             	mov    0x8(%ebp),%eax
c000154e:	89 45 f4             	mov    %eax,-0xc(%ebp)
c0001551:	8b 45 f4             	mov    -0xc(%ebp),%eax
c0001554:	89 04 24             	mov    %eax,(%esp)
c0001557:	e8 c6 09 00 00       	call   c0001f22 <put_str>
c000155c:	eb f3                	jmp    c0001551 <k_thread_a+0xc>
c000155e:	90                   	nop
c000155f:	90                   	nop

c0001560 <init_all>:
c0001560:	55                   	push   %ebp
c0001561:	89 e5                	mov    %esp,%ebp
c0001563:	83 ec 18             	sub    $0x18,%esp
c0001566:	c7 04 24 16 31 00 c0 	movl   $0xc0003116,(%esp)
c000156d:	e8 b0 09 00 00       	call   c0001f22 <put_str>
c0001572:	e8 af 03 00 00       	call   c0001926 <idt_init>
c0001577:	e8 bc 04 00 00       	call   c0001a38 <timer_init>
c000157c:	e8 4d 14 00 00       	call   c00029ce <mem_init>
c0001581:	c9                   	leave  
c0001582:	c3                   	ret    
c0001583:	90                   	nop

c0001584 <outb>:
c0001584:	55                   	push   %ebp
c0001585:	89 e5                	mov    %esp,%ebp
c0001587:	83 ec 08             	sub    $0x8,%esp
c000158a:	8b 55 08             	mov    0x8(%ebp),%edx
c000158d:	8b 45 0c             	mov    0xc(%ebp),%eax
c0001590:	66 89 55 fc          	mov    %dx,-0x4(%ebp)
c0001594:	88 45 f8             	mov    %al,-0x8(%ebp)
c0001597:	0f b6 45 f8          	movzbl -0x8(%ebp),%eax
c000159b:	0f b7 55 fc          	movzwl -0x4(%ebp),%edx
c000159f:	ee                   	out    %al,(%dx)
c00015a0:	c9                   	leave  
c00015a1:	c3                   	ret    

c00015a2 <intr_get_status>:
c00015a2:	55                   	push   %ebp
c00015a3:	89 e5                	mov    %esp,%ebp
c00015a5:	83 ec 10             	sub    $0x10,%esp
c00015a8:	c7 45 fc 00 00 00 00 	movl   $0x0,-0x4(%ebp)
c00015af:	9c                   	pushf  
c00015b0:	8f 45 fc             	pop    -0x4(%ebp)
c00015b3:	8b 45 fc             	mov    -0x4(%ebp),%eax
c00015b6:	83 e0 20             	and    $0x20,%eax
c00015b9:	85 c0                	test   %eax,%eax
c00015bb:	0f 95 c0             	setne  %al
c00015be:	0f b6 c0             	movzbl %al,%eax
c00015c1:	c9                   	leave  
c00015c2:	c3                   	ret    

c00015c3 <intr_set_status>:
c00015c3:	55                   	push   %ebp
c00015c4:	89 e5                	mov    %esp,%ebp
c00015c6:	83 ec 08             	sub    $0x8,%esp
c00015c9:	8b 45 08             	mov    0x8(%ebp),%eax
c00015cc:	83 e0 01             	and    $0x1,%eax
c00015cf:	84 c0                	test   %al,%al
c00015d1:	74 07                	je     c00015da <intr_set_status+0x17>
c00015d3:	e8 09 00 00 00       	call   c00015e1 <intr_enable>
c00015d8:	eb 05                	jmp    c00015df <intr_set_status+0x1c>
c00015da:	e8 1e 00 00 00       	call   c00015fd <intr_disable>
c00015df:	c9                   	leave  
c00015e0:	c3                   	ret    

c00015e1 <intr_enable>:
c00015e1:	55                   	push   %ebp
c00015e2:	89 e5                	mov    %esp,%ebp
c00015e4:	e8 b9 ff ff ff       	call   c00015a2 <intr_get_status>
c00015e9:	83 f8 01             	cmp    $0x1,%eax
c00015ec:	75 07                	jne    c00015f5 <intr_enable+0x14>
c00015ee:	b8 01 00 00 00       	mov    $0x1,%eax
c00015f3:	eb 06                	jmp    c00015fb <intr_enable+0x1a>
c00015f5:	fb                   	sti    
c00015f6:	b8 00 00 00 00       	mov    $0x0,%eax
c00015fb:	5d                   	pop    %ebp
c00015fc:	c3                   	ret    

c00015fd <intr_disable>:
c00015fd:	55                   	push   %ebp
c00015fe:	89 e5                	mov    %esp,%ebp
c0001600:	e8 9d ff ff ff       	call   c00015a2 <intr_get_status>
c0001605:	83 f8 01             	cmp    $0x1,%eax
c0001608:	75 08                	jne    c0001612 <intr_disable+0x15>
c000160a:	fa                   	cli    
c000160b:	b8 01 00 00 00       	mov    $0x1,%eax
c0001610:	eb 05                	jmp    c0001617 <intr_disable+0x1a>
c0001612:	b8 00 00 00 00       	mov    $0x0,%eax
c0001617:	5d                   	pop    %ebp
c0001618:	c3                   	ret    

c0001619 <pic_init>:
c0001619:	55                   	push   %ebp
c000161a:	89 e5                	mov    %esp,%ebp
c000161c:	83 ec 18             	sub    $0x18,%esp
c000161f:	c7 44 24 04 11 00 00 	movl   $0x11,0x4(%esp)
c0001626:	00 
c0001627:	c7 04 24 20 00 00 00 	movl   $0x20,(%esp)
c000162e:	e8 51 ff ff ff       	call   c0001584 <outb>
c0001633:	c7 44 24 04 20 00 00 	movl   $0x20,0x4(%esp)
c000163a:	00 
c000163b:	c7 04 24 21 00 00 00 	movl   $0x21,(%esp)
c0001642:	e8 3d ff ff ff       	call   c0001584 <outb>
c0001647:	c7 44 24 04 04 00 00 	movl   $0x4,0x4(%esp)
c000164e:	00 
c000164f:	c7 04 24 21 00 00 00 	movl   $0x21,(%esp)
c0001656:	e8 29 ff ff ff       	call   c0001584 <outb>
c000165b:	c7 44 24 04 01 00 00 	movl   $0x1,0x4(%esp)
c0001662:	00 
c0001663:	c7 04 24 21 00 00 00 	movl   $0x21,(%esp)
c000166a:	e8 15 ff ff ff       	call   c0001584 <outb>
c000166f:	c7 44 24 04 11 00 00 	movl   $0x11,0x4(%esp)
c0001676:	00 
c0001677:	c7 04 24 a0 00 00 00 	movl   $0xa0,(%esp)
c000167e:	e8 01 ff ff ff       	call   c0001584 <outb>
c0001683:	c7 44 24 04 28 00 00 	movl   $0x28,0x4(%esp)
c000168a:	00 
c000168b:	c7 04 24 a1 00 00 00 	movl   $0xa1,(%esp)
c0001692:	e8 ed fe ff ff       	call   c0001584 <outb>
c0001697:	c7 44 24 04 02 00 00 	movl   $0x2,0x4(%esp)
c000169e:	00 
c000169f:	c7 04 24 a1 00 00 00 	movl   $0xa1,(%esp)
c00016a6:	e8 d9 fe ff ff       	call   c0001584 <outb>
c00016ab:	c7 44 24 04 01 00 00 	movl   $0x1,0x4(%esp)
c00016b2:	00 
c00016b3:	c7 04 24 a1 00 00 00 	movl   $0xa1,(%esp)
c00016ba:	e8 c5 fe ff ff       	call   c0001584 <outb>
c00016bf:	c7 44 24 04 fe 00 00 	movl   $0xfe,0x4(%esp)
c00016c6:	00 
c00016c7:	c7 04 24 21 00 00 00 	movl   $0x21,(%esp)
c00016ce:	e8 b1 fe ff ff       	call   c0001584 <outb>
c00016d3:	c7 44 24 04 ff 00 00 	movl   $0xff,0x4(%esp)
c00016da:	00 
c00016db:	c7 04 24 a1 00 00 00 	movl   $0xa1,(%esp)
c00016e2:	e8 9d fe ff ff       	call   c0001584 <outb>
c00016e7:	c7 04 24 20 31 00 c0 	movl   $0xc0003120,(%esp)
c00016ee:	e8 2f 08 00 00       	call   c0001f22 <put_str>
c00016f3:	c9                   	leave  
c00016f4:	c3                   	ret    

c00016f5 <make_idt_desc>:
c00016f5:	55                   	push   %ebp
c00016f6:	89 e5                	mov    %esp,%ebp
c00016f8:	83 ec 04             	sub    $0x4,%esp
c00016fb:	8b 45 0c             	mov    0xc(%ebp),%eax
c00016fe:	88 45 fc             	mov    %al,-0x4(%ebp)
c0001701:	8b 45 10             	mov    0x10(%ebp),%eax
c0001704:	89 c2                	mov    %eax,%edx
c0001706:	8b 45 08             	mov    0x8(%ebp),%eax
c0001709:	66 89 10             	mov    %dx,(%eax)
c000170c:	8b 45 08             	mov    0x8(%ebp),%eax
c000170f:	66 c7 40 02 08 00    	movw   $0x8,0x2(%eax)
c0001715:	8b 45 08             	mov    0x8(%ebp),%eax
c0001718:	c6 40 04 00          	movb   $0x0,0x4(%eax)
c000171c:	8b 45 08             	mov    0x8(%ebp),%eax
c000171f:	0f b6 55 fc          	movzbl -0x4(%ebp),%edx
c0001723:	88 50 05             	mov    %dl,0x5(%eax)
c0001726:	8b 45 10             	mov    0x10(%ebp),%eax
c0001729:	c1 e8 10             	shr    $0x10,%eax
c000172c:	89 c2                	mov    %eax,%edx
c000172e:	8b 45 08             	mov    0x8(%ebp),%eax
c0001731:	66 89 50 06          	mov    %dx,0x6(%eax)
c0001735:	c9                   	leave  
c0001736:	c3                   	ret    

c0001737 <general_intr_handler>:
c0001737:	55                   	push   %ebp
c0001738:	89 e5                	mov    %esp,%ebp
c000173a:	83 ec 38             	sub    $0x38,%esp
c000173d:	8b 45 08             	mov    0x8(%ebp),%eax
c0001740:	88 45 e4             	mov    %al,-0x1c(%ebp)
c0001743:	c7 04 24 00 00 00 00 	movl   $0x0,(%esp)
c000174a:	e8 af 07 00 00       	call   c0001efe <set_cursor>
c000174f:	c7 45 f0 00 00 00 00 	movl   $0x0,-0x10(%ebp)
c0001756:	eb 10                	jmp    c0001768 <general_intr_handler+0x31>
c0001758:	c7 04 24 20 00 00 00 	movl   $0x20,(%esp)
c000175f:	e8 cc 06 00 00       	call   c0001e30 <put_char>
c0001764:	83 45 f0 01          	addl   $0x1,-0x10(%ebp)
c0001768:	81 7d f0 3f 01 00 00 	cmpl   $0x13f,-0x10(%ebp)
c000176f:	7e e7                	jle    c0001758 <general_intr_handler+0x21>
c0001771:	c7 04 24 00 00 00 00 	movl   $0x0,(%esp)
c0001778:	e8 81 07 00 00       	call   c0001efe <set_cursor>
c000177d:	c7 04 24 34 31 00 c0 	movl   $0xc0003134,(%esp)
c0001784:	e8 99 07 00 00       	call   c0001f22 <put_str>
c0001789:	c7 04 24 58 00 00 00 	movl   $0x58,(%esp)
c0001790:	e8 69 07 00 00       	call   c0001efe <set_cursor>
c0001795:	0f b6 45 e4          	movzbl -0x1c(%ebp),%eax
c0001799:	8b 04 85 60 49 00 c0 	mov    -0x3fffb6a0(,%eax,4),%eax
c00017a0:	89 04 24             	mov    %eax,(%esp)
c00017a3:	e8 7a 07 00 00       	call   c0001f22 <put_str>
c00017a8:	80 7d e4 0e          	cmpb   $0xe,-0x1c(%ebp)
c00017ac:	75 24                	jne    c00017d2 <general_intr_handler+0x9b>
c00017ae:	c7 45 f4 00 00 00 00 	movl   $0x0,-0xc(%ebp)
c00017b5:	0f 20 d0             	mov    %cr2,%eax
c00017b8:	89 45 f4             	mov    %eax,-0xc(%ebp)
c00017bb:	c7 04 24 5d 31 00 c0 	movl   $0xc000315d,(%esp)
c00017c2:	e8 5b 07 00 00       	call   c0001f22 <put_str>
c00017c7:	8b 45 f4             	mov    -0xc(%ebp),%eax
c00017ca:	89 04 24             	mov    %eax,(%esp)
c00017cd:	e8 6c 07 00 00       	call   c0001f3e <put_int>
c00017d2:	c7 04 24 78 31 00 c0 	movl   $0xc0003178,(%esp)
c00017d9:	e8 44 07 00 00       	call   c0001f22 <put_str>
c00017de:	eb fe                	jmp    c00017de <general_intr_handler+0xa7>

c00017e0 <exception_init>:
c00017e0:	55                   	push   %ebp
c00017e1:	89 e5                	mov    %esp,%ebp
c00017e3:	83 ec 10             	sub    $0x10,%esp
c00017e6:	c7 45 fc 00 00 00 00 	movl   $0x0,-0x4(%ebp)
c00017ed:	eb 20                	jmp    c000180f <exception_init+0x2f>
c00017ef:	8b 45 fc             	mov    -0x4(%ebp),%eax
c00017f2:	c7 04 85 00 4a 00 c0 	movl   $0xc0001737,-0x3fffb600(,%eax,4)
c00017f9:	37 17 00 c0 
c00017fd:	8b 45 fc             	mov    -0x4(%ebp),%eax
c0001800:	c7 04 85 60 49 00 c0 	movl   $0xc000319f,-0x3fffb6a0(,%eax,4)
c0001807:	9f 31 00 c0 
c000180b:	83 45 fc 01          	addl   $0x1,-0x4(%ebp)
c000180f:	83 7d fc 20          	cmpl   $0x20,-0x4(%ebp)
c0001813:	7e da                	jle    c00017ef <exception_init+0xf>
c0001815:	c7 05 60 49 00 c0 a7 	movl   $0xc00031a7,0xc0004960
c000181c:	31 00 c0 
c000181f:	c7 05 64 49 00 c0 b8 	movl   $0xc00031b8,0xc0004964
c0001826:	31 00 c0 
c0001829:	c7 05 68 49 00 c0 cc 	movl   $0xc00031cc,0xc0004968
c0001830:	31 00 c0 
c0001833:	c7 05 6c 49 00 c0 da 	movl   $0xc00031da,0xc000496c
c000183a:	31 00 c0 
c000183d:	c7 05 70 49 00 c0 f3 	movl   $0xc00031f3,0xc0004970
c0001844:	31 00 c0 
c0001847:	c7 05 74 49 00 c0 0c 	movl   $0xc000320c,0xc0004974
c000184e:	32 00 c0 
c0001851:	c7 05 78 49 00 c0 2f 	movl   $0xc000322f,0xc0004978
c0001858:	32 00 c0 
c000185b:	c7 05 7c 49 00 c0 4c 	movl   $0xc000324c,0xc000497c
c0001862:	32 00 c0 
c0001865:	c7 05 80 49 00 c0 6f 	movl   $0xc000326f,0xc0004980
c000186c:	32 00 c0 
c000186f:	c7 05 84 49 00 c0 8a 	movl   $0xc000328a,0xc0004984
c0001876:	32 00 c0 
c0001879:	c7 05 88 49 00 c0 a6 	movl   $0xc00032a6,0xc0004988
c0001880:	32 00 c0 
c0001883:	c7 05 8c 49 00 c0 c0 	movl   $0xc00032c0,0xc000498c
c000188a:	32 00 c0 
c000188d:	c7 05 90 49 00 c0 d8 	movl   $0xc00032d8,0xc0004990
c0001894:	32 00 c0 
c0001897:	c7 05 94 49 00 c0 f4 	movl   $0xc00032f4,0xc0004994
c000189e:	32 00 c0 
c00018a1:	c7 05 98 49 00 c0 15 	movl   $0xc0003315,0xc0004998
c00018a8:	33 00 c0 
c00018ab:	c7 05 a0 49 00 c0 30 	movl   $0xc0003330,0xc00049a0
c00018b2:	33 00 c0 
c00018b5:	c7 05 a4 49 00 c0 51 	movl   $0xc0003351,0xc00049a4
c00018bc:	33 00 c0 
c00018bf:	c7 05 a8 49 00 c0 6f 	movl   $0xc000336f,0xc00049a8
c00018c6:	33 00 c0 
c00018c9:	c7 05 ac 49 00 c0 8c 	movl   $0xc000338c,0xc00049ac
c00018d0:	33 00 c0 
c00018d3:	c9                   	leave  
c00018d4:	c3                   	ret    

c00018d5 <idt_desc_init>:
c00018d5:	55                   	push   %ebp
c00018d6:	89 e5                	mov    %esp,%ebp
c00018d8:	83 ec 28             	sub    $0x28,%esp
c00018db:	c7 45 f4 00 00 00 00 	movl   $0x0,-0xc(%ebp)
c00018e2:	eb 2e                	jmp    c0001912 <idt_desc_init+0x3d>
c00018e4:	8b 45 f4             	mov    -0xc(%ebp),%eax
c00018e7:	8b 04 85 96 47 00 c0 	mov    -0x3fffb86a(,%eax,4),%eax
c00018ee:	8b 55 f4             	mov    -0xc(%ebp),%edx
c00018f1:	c1 e2 03             	shl    $0x3,%edx
c00018f4:	81 c2 40 48 00 c0    	add    $0xc0004840,%edx
c00018fa:	89 44 24 08          	mov    %eax,0x8(%esp)
c00018fe:	c7 44 24 04 8e 00 00 	movl   $0x8e,0x4(%esp)
c0001905:	00 
c0001906:	89 14 24             	mov    %edx,(%esp)
c0001909:	e8 e7 fd ff ff       	call   c00016f5 <make_idt_desc>
c000190e:	83 45 f4 01          	addl   $0x1,-0xc(%ebp)
c0001912:	83 7d f4 20          	cmpl   $0x20,-0xc(%ebp)
c0001916:	7e cc                	jle    c00018e4 <idt_desc_init+0xf>
c0001918:	c7 04 24 ae 33 00 c0 	movl   $0xc00033ae,(%esp)
c000191f:	e8 fe 05 00 00       	call   c0001f22 <put_str>
c0001924:	c9                   	leave  
c0001925:	c3                   	ret    

c0001926 <idt_init>:
c0001926:	55                   	push   %ebp
c0001927:	89 e5                	mov    %esp,%ebp
c0001929:	56                   	push   %esi
c000192a:	53                   	push   %ebx
c000192b:	83 ec 20             	sub    $0x20,%esp
c000192e:	c7 04 24 c5 33 00 c0 	movl   $0xc00033c5,(%esp)
c0001935:	e8 e8 05 00 00       	call   c0001f22 <put_str>
c000193a:	e8 96 ff ff ff       	call   c00018d5 <idt_desc_init>
c000193f:	e8 9c fe ff ff       	call   c00017e0 <exception_init>
c0001944:	e8 d0 fc ff ff       	call   c0001619 <pic_init>
c0001949:	b8 40 48 00 c0       	mov    $0xc0004840,%eax
c000194e:	ba 00 00 00 00       	mov    $0x0,%edx
c0001953:	0f a4 c2 10          	shld   $0x10,%eax,%edx
c0001957:	c1 e0 10             	shl    $0x10,%eax
c000195a:	89 c3                	mov    %eax,%ebx
c000195c:	81 cb 07 01 00 00    	or     $0x107,%ebx
c0001962:	89 d6                	mov    %edx,%esi
c0001964:	83 ce 00             	or     $0x0,%esi
c0001967:	89 5d f0             	mov    %ebx,-0x10(%ebp)
c000196a:	89 75 f4             	mov    %esi,-0xc(%ebp)
c000196d:	0f 01 5d f0          	lidtl  -0x10(%ebp)
c0001971:	c7 04 24 d5 33 00 c0 	movl   $0xc00033d5,(%esp)
c0001978:	e8 a5 05 00 00       	call   c0001f22 <put_str>
c000197d:	83 c4 20             	add    $0x20,%esp
c0001980:	5b                   	pop    %ebx
c0001981:	5e                   	pop    %esi
c0001982:	5d                   	pop    %ebp
c0001983:	c3                   	ret    

c0001984 <outb>:
c0001984:	55                   	push   %ebp
c0001985:	89 e5                	mov    %esp,%ebp
c0001987:	83 ec 08             	sub    $0x8,%esp
c000198a:	8b 55 08             	mov    0x8(%ebp),%edx
c000198d:	8b 45 0c             	mov    0xc(%ebp),%eax
c0001990:	66 89 55 fc          	mov    %dx,-0x4(%ebp)
c0001994:	88 45 f8             	mov    %al,-0x8(%ebp)
c0001997:	0f b6 45 f8          	movzbl -0x8(%ebp),%eax
c000199b:	0f b7 55 fc          	movzwl -0x4(%ebp),%edx
c000199f:	ee                   	out    %al,(%dx)
c00019a0:	c9                   	leave  
c00019a1:	c3                   	ret    

c00019a2 <frequency_set>:
c00019a2:	55                   	push   %ebp
c00019a3:	89 e5                	mov    %esp,%ebp
c00019a5:	56                   	push   %esi
c00019a6:	53                   	push   %ebx
c00019a7:	83 ec 20             	sub    $0x20,%esp
c00019aa:	8b 75 08             	mov    0x8(%ebp),%esi
c00019ad:	8b 5d 0c             	mov    0xc(%ebp),%ebx
c00019b0:	8b 4d 10             	mov    0x10(%ebp),%ecx
c00019b3:	8b 55 14             	mov    0x14(%ebp),%edx
c00019b6:	8b 45 18             	mov    0x18(%ebp),%eax
c00019b9:	89 45 e0             	mov    %eax,-0x20(%ebp)
c00019bc:	89 f0                	mov    %esi,%eax
c00019be:	88 45 f4             	mov    %al,-0xc(%ebp)
c00019c1:	88 5d f0             	mov    %bl,-0x10(%ebp)
c00019c4:	88 4d ec             	mov    %cl,-0x14(%ebp)
c00019c7:	88 55 e8             	mov    %dl,-0x18(%ebp)
c00019ca:	0f b7 45 e0          	movzwl -0x20(%ebp),%eax
c00019ce:	66 89 45 e4          	mov    %ax,-0x1c(%ebp)
c00019d2:	0f b6 45 f0          	movzbl -0x10(%ebp),%eax
c00019d6:	c1 e0 06             	shl    $0x6,%eax
c00019d9:	89 c2                	mov    %eax,%edx
c00019db:	0f b6 45 ec          	movzbl -0x14(%ebp),%eax
c00019df:	c1 e0 04             	shl    $0x4,%eax
c00019e2:	09 c2                	or     %eax,%edx
c00019e4:	0f b6 45 e8          	movzbl -0x18(%ebp),%eax
c00019e8:	01 c0                	add    %eax,%eax
c00019ea:	09 d0                	or     %edx,%eax
c00019ec:	0f b6 c0             	movzbl %al,%eax
c00019ef:	89 44 24 04          	mov    %eax,0x4(%esp)
c00019f3:	c7 04 24 43 00 00 00 	movl   $0x43,(%esp)
c00019fa:	e8 85 ff ff ff       	call   c0001984 <outb>
c00019ff:	0f b7 45 e4          	movzwl -0x1c(%ebp),%eax
c0001a03:	0f b6 d0             	movzbl %al,%edx
c0001a06:	0f b6 45 f4          	movzbl -0xc(%ebp),%eax
c0001a0a:	89 54 24 04          	mov    %edx,0x4(%esp)
c0001a0e:	89 04 24             	mov    %eax,(%esp)
c0001a11:	e8 6e ff ff ff       	call   c0001984 <outb>
c0001a16:	0f b7 45 e4          	movzwl -0x1c(%ebp),%eax
c0001a1a:	66 c1 e8 08          	shr    $0x8,%ax
c0001a1e:	0f b6 d0             	movzbl %al,%edx
c0001a21:	0f b6 45 f4          	movzbl -0xc(%ebp),%eax
c0001a25:	89 54 24 04          	mov    %edx,0x4(%esp)
c0001a29:	89 04 24             	mov    %eax,(%esp)
c0001a2c:	e8 53 ff ff ff       	call   c0001984 <outb>
c0001a31:	83 c4 20             	add    $0x20,%esp
c0001a34:	5b                   	pop    %ebx
c0001a35:	5e                   	pop    %esi
c0001a36:	5d                   	pop    %ebp
c0001a37:	c3                   	ret    

c0001a38 <timer_init>:
c0001a38:	55                   	push   %ebp
c0001a39:	89 e5                	mov    %esp,%ebp
c0001a3b:	83 ec 28             	sub    $0x28,%esp
c0001a3e:	c7 04 24 e4 33 00 c0 	movl   $0xc00033e4,(%esp)
c0001a45:	e8 d8 04 00 00       	call   c0001f22 <put_str>
c0001a4a:	c7 44 24 10 9b 2e 00 	movl   $0x2e9b,0x10(%esp)
c0001a51:	00 
c0001a52:	c7 44 24 0c 02 00 00 	movl   $0x2,0xc(%esp)
c0001a59:	00 
c0001a5a:	c7 44 24 08 03 00 00 	movl   $0x3,0x8(%esp)
c0001a61:	00 
c0001a62:	c7 44 24 04 00 00 00 	movl   $0x0,0x4(%esp)
c0001a69:	00 
c0001a6a:	c7 04 24 40 00 00 00 	movl   $0x40,(%esp)
c0001a71:	e8 2c ff ff ff       	call   c00019a2 <frequency_set>
c0001a76:	c7 04 24 f6 33 00 c0 	movl   $0xc00033f6,(%esp)
c0001a7d:	e8 a0 04 00 00       	call   c0001f22 <put_str>
c0001a82:	c9                   	leave  
c0001a83:	c3                   	ret    
c0001a84:	90                   	nop
c0001a85:	90                   	nop
c0001a86:	90                   	nop
c0001a87:	90                   	nop
c0001a88:	90                   	nop
c0001a89:	90                   	nop
c0001a8a:	90                   	nop
c0001a8b:	90                   	nop
c0001a8c:	90                   	nop
c0001a8d:	90                   	nop
c0001a8e:	90                   	nop
c0001a8f:	90                   	nop

c0001a90 <intr_exit>:
c0001a90:	83 c4 04             	add    $0x4,%esp
c0001a93:	61                   	popa   
c0001a94:	0f a9                	pop    %gs
c0001a96:	0f a1                	pop    %fs
c0001a98:	07                   	pop    %es
c0001a99:	1f                   	pop    %ds
c0001a9a:	83 c4 04             	add    $0x4,%esp
c0001a9d:	cf                   	iret   

c0001a9e <intr0x00entry>:
c0001a9e:	6a 00                	push   $0x0
c0001aa0:	1e                   	push   %ds
c0001aa1:	06                   	push   %es
c0001aa2:	0f a0                	push   %fs
c0001aa4:	0f a8                	push   %gs
c0001aa6:	60                   	pusha  
c0001aa7:	b0 20                	mov    $0x20,%al
c0001aa9:	e6 a0                	out    %al,$0xa0
c0001aab:	e6 20                	out    %al,$0x20
c0001aad:	6a 00                	push   $0x0
c0001aaf:	ff 15 00 4a 00 c0    	call   *0xc0004a00
c0001ab5:	eb d9                	jmp    c0001a90 <intr_exit>

c0001ab7 <intr0x01entry>:
c0001ab7:	6a 00                	push   $0x0
c0001ab9:	1e                   	push   %ds
c0001aba:	06                   	push   %es
c0001abb:	0f a0                	push   %fs
c0001abd:	0f a8                	push   %gs
c0001abf:	60                   	pusha  
c0001ac0:	b0 20                	mov    $0x20,%al
c0001ac2:	e6 a0                	out    %al,$0xa0
c0001ac4:	e6 20                	out    %al,$0x20
c0001ac6:	6a 01                	push   $0x1
c0001ac8:	ff 15 04 4a 00 c0    	call   *0xc0004a04
c0001ace:	eb c0                	jmp    c0001a90 <intr_exit>

c0001ad0 <intr0x02entry>:
c0001ad0:	6a 00                	push   $0x0
c0001ad2:	1e                   	push   %ds
c0001ad3:	06                   	push   %es
c0001ad4:	0f a0                	push   %fs
c0001ad6:	0f a8                	push   %gs
c0001ad8:	60                   	pusha  
c0001ad9:	b0 20                	mov    $0x20,%al
c0001adb:	e6 a0                	out    %al,$0xa0
c0001add:	e6 20                	out    %al,$0x20
c0001adf:	6a 02                	push   $0x2
c0001ae1:	ff 15 08 4a 00 c0    	call   *0xc0004a08
c0001ae7:	eb a7                	jmp    c0001a90 <intr_exit>

c0001ae9 <intr0x03entry>:
c0001ae9:	6a 00                	push   $0x0
c0001aeb:	1e                   	push   %ds
c0001aec:	06                   	push   %es
c0001aed:	0f a0                	push   %fs
c0001aef:	0f a8                	push   %gs
c0001af1:	60                   	pusha  
c0001af2:	b0 20                	mov    $0x20,%al
c0001af4:	e6 a0                	out    %al,$0xa0
c0001af6:	e6 20                	out    %al,$0x20
c0001af8:	6a 03                	push   $0x3
c0001afa:	ff 15 0c 4a 00 c0    	call   *0xc0004a0c
c0001b00:	eb 8e                	jmp    c0001a90 <intr_exit>

c0001b02 <intr0x04entry>:
c0001b02:	6a 00                	push   $0x0
c0001b04:	1e                   	push   %ds
c0001b05:	06                   	push   %es
c0001b06:	0f a0                	push   %fs
c0001b08:	0f a8                	push   %gs
c0001b0a:	60                   	pusha  
c0001b0b:	b0 20                	mov    $0x20,%al
c0001b0d:	e6 a0                	out    %al,$0xa0
c0001b0f:	e6 20                	out    %al,$0x20
c0001b11:	6a 04                	push   $0x4
c0001b13:	ff 15 10 4a 00 c0    	call   *0xc0004a10
c0001b19:	e9 72 ff ff ff       	jmp    c0001a90 <intr_exit>

c0001b1e <intr0x05entry>:
c0001b1e:	6a 00                	push   $0x0
c0001b20:	1e                   	push   %ds
c0001b21:	06                   	push   %es
c0001b22:	0f a0                	push   %fs
c0001b24:	0f a8                	push   %gs
c0001b26:	60                   	pusha  
c0001b27:	b0 20                	mov    $0x20,%al
c0001b29:	e6 a0                	out    %al,$0xa0
c0001b2b:	e6 20                	out    %al,$0x20
c0001b2d:	6a 05                	push   $0x5
c0001b2f:	ff 15 14 4a 00 c0    	call   *0xc0004a14
c0001b35:	e9 56 ff ff ff       	jmp    c0001a90 <intr_exit>

c0001b3a <intr0x06entry>:
c0001b3a:	6a 00                	push   $0x0
c0001b3c:	1e                   	push   %ds
c0001b3d:	06                   	push   %es
c0001b3e:	0f a0                	push   %fs
c0001b40:	0f a8                	push   %gs
c0001b42:	60                   	pusha  
c0001b43:	b0 20                	mov    $0x20,%al
c0001b45:	e6 a0                	out    %al,$0xa0
c0001b47:	e6 20                	out    %al,$0x20
c0001b49:	6a 06                	push   $0x6
c0001b4b:	ff 15 18 4a 00 c0    	call   *0xc0004a18
c0001b51:	e9 3a ff ff ff       	jmp    c0001a90 <intr_exit>

c0001b56 <intr0x07entry>:
c0001b56:	6a 00                	push   $0x0
c0001b58:	1e                   	push   %ds
c0001b59:	06                   	push   %es
c0001b5a:	0f a0                	push   %fs
c0001b5c:	0f a8                	push   %gs
c0001b5e:	60                   	pusha  
c0001b5f:	b0 20                	mov    $0x20,%al
c0001b61:	e6 a0                	out    %al,$0xa0
c0001b63:	e6 20                	out    %al,$0x20
c0001b65:	6a 07                	push   $0x7
c0001b67:	ff 15 1c 4a 00 c0    	call   *0xc0004a1c
c0001b6d:	e9 1e ff ff ff       	jmp    c0001a90 <intr_exit>

c0001b72 <intr0x08entry>:
c0001b72:	6a 00                	push   $0x0
c0001b74:	1e                   	push   %ds
c0001b75:	06                   	push   %es
c0001b76:	0f a0                	push   %fs
c0001b78:	0f a8                	push   %gs
c0001b7a:	60                   	pusha  
c0001b7b:	b0 20                	mov    $0x20,%al
c0001b7d:	e6 a0                	out    %al,$0xa0
c0001b7f:	e6 20                	out    %al,$0x20
c0001b81:	6a 08                	push   $0x8
c0001b83:	ff 15 20 4a 00 c0    	call   *0xc0004a20
c0001b89:	e9 02 ff ff ff       	jmp    c0001a90 <intr_exit>

c0001b8e <intr0x09entry>:
c0001b8e:	6a 00                	push   $0x0
c0001b90:	1e                   	push   %ds
c0001b91:	06                   	push   %es
c0001b92:	0f a0                	push   %fs
c0001b94:	0f a8                	push   %gs
c0001b96:	60                   	pusha  
c0001b97:	b0 20                	mov    $0x20,%al
c0001b99:	e6 a0                	out    %al,$0xa0
c0001b9b:	e6 20                	out    %al,$0x20
c0001b9d:	6a 09                	push   $0x9
c0001b9f:	ff 15 24 4a 00 c0    	call   *0xc0004a24
c0001ba5:	e9 e6 fe ff ff       	jmp    c0001a90 <intr_exit>

c0001baa <intr0x0aentry>:
c0001baa:	6a 00                	push   $0x0
c0001bac:	1e                   	push   %ds
c0001bad:	06                   	push   %es
c0001bae:	0f a0                	push   %fs
c0001bb0:	0f a8                	push   %gs
c0001bb2:	60                   	pusha  
c0001bb3:	b0 20                	mov    $0x20,%al
c0001bb5:	e6 a0                	out    %al,$0xa0
c0001bb7:	e6 20                	out    %al,$0x20
c0001bb9:	6a 0a                	push   $0xa
c0001bbb:	ff 15 28 4a 00 c0    	call   *0xc0004a28
c0001bc1:	e9 ca fe ff ff       	jmp    c0001a90 <intr_exit>

c0001bc6 <intr0x0bentry>:
c0001bc6:	6a 00                	push   $0x0
c0001bc8:	1e                   	push   %ds
c0001bc9:	06                   	push   %es
c0001bca:	0f a0                	push   %fs
c0001bcc:	0f a8                	push   %gs
c0001bce:	60                   	pusha  
c0001bcf:	b0 20                	mov    $0x20,%al
c0001bd1:	e6 a0                	out    %al,$0xa0
c0001bd3:	e6 20                	out    %al,$0x20
c0001bd5:	6a 0b                	push   $0xb
c0001bd7:	ff 15 2c 4a 00 c0    	call   *0xc0004a2c
c0001bdd:	e9 ae fe ff ff       	jmp    c0001a90 <intr_exit>

c0001be2 <intr0x0centry>:
c0001be2:	6a 00                	push   $0x0
c0001be4:	1e                   	push   %ds
c0001be5:	06                   	push   %es
c0001be6:	0f a0                	push   %fs
c0001be8:	0f a8                	push   %gs
c0001bea:	60                   	pusha  
c0001beb:	b0 20                	mov    $0x20,%al
c0001bed:	e6 a0                	out    %al,$0xa0
c0001bef:	e6 20                	out    %al,$0x20
c0001bf1:	6a 0c                	push   $0xc
c0001bf3:	ff 15 30 4a 00 c0    	call   *0xc0004a30
c0001bf9:	e9 92 fe ff ff       	jmp    c0001a90 <intr_exit>

c0001bfe <intr0x0dentry>:
c0001bfe:	6a 00                	push   $0x0
c0001c00:	1e                   	push   %ds
c0001c01:	06                   	push   %es
c0001c02:	0f a0                	push   %fs
c0001c04:	0f a8                	push   %gs
c0001c06:	60                   	pusha  
c0001c07:	b0 20                	mov    $0x20,%al
c0001c09:	e6 a0                	out    %al,$0xa0
c0001c0b:	e6 20                	out    %al,$0x20
c0001c0d:	6a 0d                	push   $0xd
c0001c0f:	ff 15 34 4a 00 c0    	call   *0xc0004a34
c0001c15:	e9 76 fe ff ff       	jmp    c0001a90 <intr_exit>

c0001c1a <intr0x0eentry>:
c0001c1a:	6a 00                	push   $0x0
c0001c1c:	1e                   	push   %ds
c0001c1d:	06                   	push   %es
c0001c1e:	0f a0                	push   %fs
c0001c20:	0f a8                	push   %gs
c0001c22:	60                   	pusha  
c0001c23:	b0 20                	mov    $0x20,%al
c0001c25:	e6 a0                	out    %al,$0xa0
c0001c27:	e6 20                	out    %al,$0x20
c0001c29:	6a 0e                	push   $0xe
c0001c2b:	ff 15 38 4a 00 c0    	call   *0xc0004a38
c0001c31:	e9 5a fe ff ff       	jmp    c0001a90 <intr_exit>

c0001c36 <intr0x0fentry>:
c0001c36:	6a 00                	push   $0x0
c0001c38:	1e                   	push   %ds
c0001c39:	06                   	push   %es
c0001c3a:	0f a0                	push   %fs
c0001c3c:	0f a8                	push   %gs
c0001c3e:	60                   	pusha  
c0001c3f:	b0 20                	mov    $0x20,%al
c0001c41:	e6 a0                	out    %al,$0xa0
c0001c43:	e6 20                	out    %al,$0x20
c0001c45:	6a 0f                	push   $0xf
c0001c47:	ff 15 3c 4a 00 c0    	call   *0xc0004a3c
c0001c4d:	e9 3e fe ff ff       	jmp    c0001a90 <intr_exit>

c0001c52 <intr0x10entry>:
c0001c52:	6a 00                	push   $0x0
c0001c54:	1e                   	push   %ds
c0001c55:	06                   	push   %es
c0001c56:	0f a0                	push   %fs
c0001c58:	0f a8                	push   %gs
c0001c5a:	60                   	pusha  
c0001c5b:	b0 20                	mov    $0x20,%al
c0001c5d:	e6 a0                	out    %al,$0xa0
c0001c5f:	e6 20                	out    %al,$0x20
c0001c61:	6a 10                	push   $0x10
c0001c63:	ff 15 40 4a 00 c0    	call   *0xc0004a40
c0001c69:	e9 22 fe ff ff       	jmp    c0001a90 <intr_exit>

c0001c6e <intr0x11entry>:
c0001c6e:	6a 00                	push   $0x0
c0001c70:	1e                   	push   %ds
c0001c71:	06                   	push   %es
c0001c72:	0f a0                	push   %fs
c0001c74:	0f a8                	push   %gs
c0001c76:	60                   	pusha  
c0001c77:	b0 20                	mov    $0x20,%al
c0001c79:	e6 a0                	out    %al,$0xa0
c0001c7b:	e6 20                	out    %al,$0x20
c0001c7d:	6a 11                	push   $0x11
c0001c7f:	ff 15 44 4a 00 c0    	call   *0xc0004a44
c0001c85:	e9 06 fe ff ff       	jmp    c0001a90 <intr_exit>

c0001c8a <intr0x12entry>:
c0001c8a:	6a 00                	push   $0x0
c0001c8c:	1e                   	push   %ds
c0001c8d:	06                   	push   %es
c0001c8e:	0f a0                	push   %fs
c0001c90:	0f a8                	push   %gs
c0001c92:	60                   	pusha  
c0001c93:	b0 20                	mov    $0x20,%al
c0001c95:	e6 a0                	out    %al,$0xa0
c0001c97:	e6 20                	out    %al,$0x20
c0001c99:	6a 12                	push   $0x12
c0001c9b:	ff 15 48 4a 00 c0    	call   *0xc0004a48
c0001ca1:	e9 ea fd ff ff       	jmp    c0001a90 <intr_exit>

c0001ca6 <intr0x13entry>:
c0001ca6:	6a 00                	push   $0x0
c0001ca8:	1e                   	push   %ds
c0001ca9:	06                   	push   %es
c0001caa:	0f a0                	push   %fs
c0001cac:	0f a8                	push   %gs
c0001cae:	60                   	pusha  
c0001caf:	b0 20                	mov    $0x20,%al
c0001cb1:	e6 a0                	out    %al,$0xa0
c0001cb3:	e6 20                	out    %al,$0x20
c0001cb5:	6a 13                	push   $0x13
c0001cb7:	ff 15 4c 4a 00 c0    	call   *0xc0004a4c
c0001cbd:	e9 ce fd ff ff       	jmp    c0001a90 <intr_exit>

c0001cc2 <intr0x14entry>:
c0001cc2:	6a 00                	push   $0x0
c0001cc4:	1e                   	push   %ds
c0001cc5:	06                   	push   %es
c0001cc6:	0f a0                	push   %fs
c0001cc8:	0f a8                	push   %gs
c0001cca:	60                   	pusha  
c0001ccb:	b0 20                	mov    $0x20,%al
c0001ccd:	e6 a0                	out    %al,$0xa0
c0001ccf:	e6 20                	out    %al,$0x20
c0001cd1:	6a 14                	push   $0x14
c0001cd3:	ff 15 50 4a 00 c0    	call   *0xc0004a50
c0001cd9:	e9 b2 fd ff ff       	jmp    c0001a90 <intr_exit>

c0001cde <intr0x15entry>:
c0001cde:	6a 00                	push   $0x0
c0001ce0:	1e                   	push   %ds
c0001ce1:	06                   	push   %es
c0001ce2:	0f a0                	push   %fs
c0001ce4:	0f a8                	push   %gs
c0001ce6:	60                   	pusha  
c0001ce7:	b0 20                	mov    $0x20,%al
c0001ce9:	e6 a0                	out    %al,$0xa0
c0001ceb:	e6 20                	out    %al,$0x20
c0001ced:	6a 15                	push   $0x15
c0001cef:	ff 15 54 4a 00 c0    	call   *0xc0004a54
c0001cf5:	e9 96 fd ff ff       	jmp    c0001a90 <intr_exit>

c0001cfa <intr0x16entry>:
c0001cfa:	6a 00                	push   $0x0
c0001cfc:	1e                   	push   %ds
c0001cfd:	06                   	push   %es
c0001cfe:	0f a0                	push   %fs
c0001d00:	0f a8                	push   %gs
c0001d02:	60                   	pusha  
c0001d03:	b0 20                	mov    $0x20,%al
c0001d05:	e6 a0                	out    %al,$0xa0
c0001d07:	e6 20                	out    %al,$0x20
c0001d09:	6a 16                	push   $0x16
c0001d0b:	ff 15 58 4a 00 c0    	call   *0xc0004a58
c0001d11:	e9 7a fd ff ff       	jmp    c0001a90 <intr_exit>

c0001d16 <intr0x17entry>:
c0001d16:	6a 00                	push   $0x0
c0001d18:	1e                   	push   %ds
c0001d19:	06                   	push   %es
c0001d1a:	0f a0                	push   %fs
c0001d1c:	0f a8                	push   %gs
c0001d1e:	60                   	pusha  
c0001d1f:	b0 20                	mov    $0x20,%al
c0001d21:	e6 a0                	out    %al,$0xa0
c0001d23:	e6 20                	out    %al,$0x20
c0001d25:	6a 17                	push   $0x17
c0001d27:	ff 15 5c 4a 00 c0    	call   *0xc0004a5c
c0001d2d:	e9 5e fd ff ff       	jmp    c0001a90 <intr_exit>

c0001d32 <intr0x18entry>:
c0001d32:	6a 00                	push   $0x0
c0001d34:	1e                   	push   %ds
c0001d35:	06                   	push   %es
c0001d36:	0f a0                	push   %fs
c0001d38:	0f a8                	push   %gs
c0001d3a:	60                   	pusha  
c0001d3b:	b0 20                	mov    $0x20,%al
c0001d3d:	e6 a0                	out    %al,$0xa0
c0001d3f:	e6 20                	out    %al,$0x20
c0001d41:	6a 18                	push   $0x18
c0001d43:	ff 15 60 4a 00 c0    	call   *0xc0004a60
c0001d49:	e9 42 fd ff ff       	jmp    c0001a90 <intr_exit>

c0001d4e <intr0x19entry>:
c0001d4e:	6a 00                	push   $0x0
c0001d50:	1e                   	push   %ds
c0001d51:	06                   	push   %es
c0001d52:	0f a0                	push   %fs
c0001d54:	0f a8                	push   %gs
c0001d56:	60                   	pusha  
c0001d57:	b0 20                	mov    $0x20,%al
c0001d59:	e6 a0                	out    %al,$0xa0
c0001d5b:	e6 20                	out    %al,$0x20
c0001d5d:	6a 19                	push   $0x19
c0001d5f:	ff 15 64 4a 00 c0    	call   *0xc0004a64
c0001d65:	e9 26 fd ff ff       	jmp    c0001a90 <intr_exit>

c0001d6a <intr0x1aentry>:
c0001d6a:	6a 00                	push   $0x0
c0001d6c:	1e                   	push   %ds
c0001d6d:	06                   	push   %es
c0001d6e:	0f a0                	push   %fs
c0001d70:	0f a8                	push   %gs
c0001d72:	60                   	pusha  
c0001d73:	b0 20                	mov    $0x20,%al
c0001d75:	e6 a0                	out    %al,$0xa0
c0001d77:	e6 20                	out    %al,$0x20
c0001d79:	6a 1a                	push   $0x1a
c0001d7b:	ff 15 68 4a 00 c0    	call   *0xc0004a68
c0001d81:	e9 0a fd ff ff       	jmp    c0001a90 <intr_exit>

c0001d86 <intr0x1bentry>:
c0001d86:	6a 00                	push   $0x0
c0001d88:	1e                   	push   %ds
c0001d89:	06                   	push   %es
c0001d8a:	0f a0                	push   %fs
c0001d8c:	0f a8                	push   %gs
c0001d8e:	60                   	pusha  
c0001d8f:	b0 20                	mov    $0x20,%al
c0001d91:	e6 a0                	out    %al,$0xa0
c0001d93:	e6 20                	out    %al,$0x20
c0001d95:	6a 1b                	push   $0x1b
c0001d97:	ff 15 6c 4a 00 c0    	call   *0xc0004a6c
c0001d9d:	e9 ee fc ff ff       	jmp    c0001a90 <intr_exit>

c0001da2 <intr0x1centry>:
c0001da2:	6a 00                	push   $0x0
c0001da4:	1e                   	push   %ds
c0001da5:	06                   	push   %es
c0001da6:	0f a0                	push   %fs
c0001da8:	0f a8                	push   %gs
c0001daa:	60                   	pusha  
c0001dab:	b0 20                	mov    $0x20,%al
c0001dad:	e6 a0                	out    %al,$0xa0
c0001daf:	e6 20                	out    %al,$0x20
c0001db1:	6a 1c                	push   $0x1c
c0001db3:	ff 15 70 4a 00 c0    	call   *0xc0004a70
c0001db9:	e9 d2 fc ff ff       	jmp    c0001a90 <intr_exit>

c0001dbe <intr0x1dentry>:
c0001dbe:	6a 00                	push   $0x0
c0001dc0:	1e                   	push   %ds
c0001dc1:	06                   	push   %es
c0001dc2:	0f a0                	push   %fs
c0001dc4:	0f a8                	push   %gs
c0001dc6:	60                   	pusha  
c0001dc7:	b0 20                	mov    $0x20,%al
c0001dc9:	e6 a0                	out    %al,$0xa0
c0001dcb:	e6 20                	out    %al,$0x20
c0001dcd:	6a 1d                	push   $0x1d
c0001dcf:	ff 15 74 4a 00 c0    	call   *0xc0004a74
c0001dd5:	e9 b6 fc ff ff       	jmp    c0001a90 <intr_exit>

c0001dda <intr0x1eentry>:
c0001dda:	90                   	nop
c0001ddb:	1e                   	push   %ds
c0001ddc:	06                   	push   %es
c0001ddd:	0f a0                	push   %fs
c0001ddf:	0f a8                	push   %gs
c0001de1:	60                   	pusha  
c0001de2:	b0 20                	mov    $0x20,%al
c0001de4:	e6 a0                	out    %al,$0xa0
c0001de6:	e6 20                	out    %al,$0x20
c0001de8:	6a 1e                	push   $0x1e
c0001dea:	ff 15 78 4a 00 c0    	call   *0xc0004a78
c0001df0:	e9 9b fc ff ff       	jmp    c0001a90 <intr_exit>

c0001df5 <intr0x1fentry>:
c0001df5:	6a 00                	push   $0x0
c0001df7:	1e                   	push   %ds
c0001df8:	06                   	push   %es
c0001df9:	0f a0                	push   %fs
c0001dfb:	0f a8                	push   %gs
c0001dfd:	60                   	pusha  
c0001dfe:	b0 20                	mov    $0x20,%al
c0001e00:	e6 a0                	out    %al,$0xa0
c0001e02:	e6 20                	out    %al,$0x20
c0001e04:	6a 1f                	push   $0x1f
c0001e06:	ff 15 7c 4a 00 c0    	call   *0xc0004a7c
c0001e0c:	e9 7f fc ff ff       	jmp    c0001a90 <intr_exit>

c0001e11 <intr0x20entry>:
c0001e11:	6a 00                	push   $0x0
c0001e13:	1e                   	push   %ds
c0001e14:	06                   	push   %es
c0001e15:	0f a0                	push   %fs
c0001e17:	0f a8                	push   %gs
c0001e19:	60                   	pusha  
c0001e1a:	b0 20                	mov    $0x20,%al
c0001e1c:	e6 a0                	out    %al,$0xa0
c0001e1e:	e6 20                	out    %al,$0x20
c0001e20:	6a 20                	push   $0x20
c0001e22:	ff 15 80 4a 00 c0    	call   *0xc0004a80
c0001e28:	e9 63 fc ff ff       	jmp    c0001a90 <intr_exit>
c0001e2d:	90                   	nop
c0001e2e:	90                   	nop
c0001e2f:	90                   	nop

c0001e30 <put_char>:
c0001e30:	60                   	pusha  
c0001e31:	66 b8 18 00          	mov    $0x18,%ax
c0001e35:	8e e8                	mov    %eax,%gs
c0001e37:	66 ba d4 03          	mov    $0x3d4,%dx
c0001e3b:	b0 0e                	mov    $0xe,%al
c0001e3d:	ee                   	out    %al,(%dx)
c0001e3e:	66 ba d5 03          	mov    $0x3d5,%dx
c0001e42:	ec                   	in     (%dx),%al
c0001e43:	88 c4                	mov    %al,%ah
c0001e45:	66 ba d4 03          	mov    $0x3d4,%dx
c0001e49:	b0 0f                	mov    $0xf,%al
c0001e4b:	ee                   	out    %al,(%dx)
c0001e4c:	66 ba d5 03          	mov    $0x3d5,%dx
c0001e50:	ec                   	in     (%dx),%al
c0001e51:	66 89 c3             	mov    %ax,%bx
c0001e54:	8b 4c 24 24          	mov    0x24(%esp),%ecx
c0001e58:	80 f9 0d             	cmp    $0xd,%cl
c0001e5b:	74 3c                	je     c0001e99 <put_char.is_carriage_return>
c0001e5d:	80 f9 0a             	cmp    $0xa,%cl
c0001e60:	74 37                	je     c0001e99 <put_char.is_carriage_return>
c0001e62:	80 f9 08             	cmp    $0x8,%cl
c0001e65:	74 02                	je     c0001e69 <put_char.is_backspace>
c0001e67:	eb 16                	jmp    c0001e7f <put_char.put_other>

c0001e69 <put_char.is_backspace>:
c0001e69:	66 4b                	dec    %bx
c0001e6b:	66 d1 e3             	shl    %bx
c0001e6e:	65 67 c6 07 20       	movb   $0x20,%gs:(%bx)
c0001e73:	66 43                	inc    %bx
c0001e75:	65 67 c6 07 07       	movb   $0x7,%gs:(%bx)
c0001e7a:	66 d1 eb             	shr    %bx
c0001e7d:	eb 61                	jmp    c0001ee0 <put_char.set_cursor>

c0001e7f <put_char.put_other>:
c0001e7f:	66 d1 e3             	shl    %bx
c0001e82:	65 67 88 0f          	mov    %cl,%gs:(%bx)
c0001e86:	66 43                	inc    %bx
c0001e88:	65 67 c6 07 07       	movb   $0x7,%gs:(%bx)
c0001e8d:	66 d1 eb             	shr    %bx
c0001e90:	66 43                	inc    %bx
c0001e92:	66 81 fb d0 07       	cmp    $0x7d0,%bx
c0001e97:	7c 47                	jl     c0001ee0 <put_char.set_cursor>

c0001e99 <put_char.is_carriage_return>:
c0001e99:	66 31 d2             	xor    %dx,%dx
c0001e9c:	66 89 d8             	mov    %bx,%ax
c0001e9f:	66 be 50 00          	mov    $0x50,%si
c0001ea3:	66 f7 f6             	div    %si
c0001ea6:	66 29 d3             	sub    %dx,%bx

c0001ea9 <put_char.is_carriage_return_end>:
c0001ea9:	66 83 c3 50          	add    $0x50,%bx
c0001ead:	66 81 fb d0 07       	cmp    $0x7d0,%bx

c0001eb2 <put_char.is_line_feed_end>:
c0001eb2:	7c 2c                	jl     c0001ee0 <put_char.set_cursor>

c0001eb4 <put_char.roll_screen>:
c0001eb4:	fc                   	cld    
c0001eb5:	b9 c0 03 00 00       	mov    $0x3c0,%ecx
c0001eba:	be a0 80 0b c0       	mov    $0xc00b80a0,%esi
c0001ebf:	bf 00 80 0b c0       	mov    $0xc00b8000,%edi
c0001ec4:	f3 a5                	rep movsl %ds:(%esi),%es:(%edi)
c0001ec6:	bb 00 0f 00 00       	mov    $0xf00,%ebx
c0001ecb:	b9 50 00 00 00       	mov    $0x50,%ecx

c0001ed0 <put_char.cls>:
c0001ed0:	65 66 c7 03 20 07    	movw   $0x720,%gs:(%ebx)
c0001ed6:	83 c3 02             	add    $0x2,%ebx
c0001ed9:	e2 f5                	loop   c0001ed0 <put_char.cls>
c0001edb:	bb 80 07 00 00       	mov    $0x780,%ebx

c0001ee0 <put_char.set_cursor>:
c0001ee0:	66 ba d4 03          	mov    $0x3d4,%dx
c0001ee4:	b0 0e                	mov    $0xe,%al
c0001ee6:	ee                   	out    %al,(%dx)
c0001ee7:	66 ba d5 03          	mov    $0x3d5,%dx
c0001eeb:	88 f8                	mov    %bh,%al
c0001eed:	ee                   	out    %al,(%dx)
c0001eee:	66 ba d4 03          	mov    $0x3d4,%dx
c0001ef2:	b0 0f                	mov    $0xf,%al
c0001ef4:	ee                   	out    %al,(%dx)
c0001ef5:	66 ba d5 03          	mov    $0x3d5,%dx
c0001ef9:	88 d8                	mov    %bl,%al
c0001efb:	ee                   	out    %al,(%dx)

c0001efc <put_char.put_char_done>:
c0001efc:	61                   	popa   
c0001efd:	c3                   	ret    

c0001efe <set_cursor>:
c0001efe:	60                   	pusha  
c0001eff:	66 8b 5c 24 24       	mov    0x24(%esp),%bx
c0001f04:	66 ba d4 03          	mov    $0x3d4,%dx
c0001f08:	b0 0e                	mov    $0xe,%al
c0001f0a:	ee                   	out    %al,(%dx)
c0001f0b:	66 ba d5 03          	mov    $0x3d5,%dx
c0001f0f:	88 f8                	mov    %bh,%al
c0001f11:	ee                   	out    %al,(%dx)
c0001f12:	66 ba d4 03          	mov    $0x3d4,%dx
c0001f16:	b0 0f                	mov    $0xf,%al
c0001f18:	ee                   	out    %al,(%dx)
c0001f19:	66 ba d5 03          	mov    $0x3d5,%dx
c0001f1d:	88 d8                	mov    %bl,%al
c0001f1f:	ee                   	out    %al,(%dx)
c0001f20:	61                   	popa   
c0001f21:	c3                   	ret    

c0001f22 <put_str>:
c0001f22:	60                   	pusha  
c0001f23:	31 c9                	xor    %ecx,%ecx
c0001f25:	8b 5c 24 24          	mov    0x24(%esp),%ebx

c0001f29 <put_str.ploop>:
c0001f29:	8a 0b                	mov    (%ebx),%cl
c0001f2b:	80 f9 00             	cmp    $0x0,%cl
c0001f2e:	74 0c                	je     c0001f3c <put_str.pend>
c0001f30:	51                   	push   %ecx
c0001f31:	e8 fa fe ff ff       	call   c0001e30 <put_char>
c0001f36:	83 c4 04             	add    $0x4,%esp
c0001f39:	43                   	inc    %ebx
c0001f3a:	eb ed                	jmp    c0001f29 <put_str.ploop>

c0001f3c <put_str.pend>:
c0001f3c:	61                   	popa   
c0001f3d:	c3                   	ret    

c0001f3e <put_int>:
c0001f3e:	60                   	pusha  
c0001f3f:	89 e5                	mov    %esp,%ebp
c0001f41:	8b 45 24             	mov    0x24(%ebp),%eax
c0001f44:	89 c2                	mov    %eax,%edx
c0001f46:	bf 07 00 00 00       	mov    $0x7,%edi
c0001f4b:	b9 08 00 00 00       	mov    $0x8,%ecx
c0001f50:	bb 1c 48 00 c0       	mov    $0xc000481c,%ebx

c0001f55 <put_int.16based_4bits>:
c0001f55:	83 e2 0f             	and    $0xf,%edx
c0001f58:	83 fa 09             	cmp    $0x9,%edx
c0001f5b:	7f 05                	jg     c0001f62 <put_int.isA2F>
c0001f5d:	83 c2 30             	add    $0x30,%edx
c0001f60:	eb 06                	jmp    c0001f68 <put_int.store>

c0001f62 <put_int.isA2F>:
c0001f62:	83 ea 0a             	sub    $0xa,%edx
c0001f65:	83 c2 41             	add    $0x41,%edx

c0001f68 <put_int.store>:
c0001f68:	88 14 3b             	mov    %dl,(%ebx,%edi,1)
c0001f6b:	4f                   	dec    %edi
c0001f6c:	c1 e8 04             	shr    $0x4,%eax
c0001f6f:	89 c2                	mov    %eax,%edx
c0001f71:	e2 e2                	loop   c0001f55 <put_int.16based_4bits>

c0001f73 <put_int.ready_to_print>:
c0001f73:	47                   	inc    %edi

c0001f74 <put_int.skip_prefix_0>:
c0001f74:	83 ff 08             	cmp    $0x8,%edi
c0001f77:	74 0f                	je     c0001f88 <put_int.full0>

c0001f79 <put_int.go_on_skip>:
c0001f79:	8a 8f 1c 48 00 c0    	mov    -0x3fffb7e4(%edi),%cl
c0001f7f:	47                   	inc    %edi
c0001f80:	80 f9 30             	cmp    $0x30,%cl
c0001f83:	74 ef                	je     c0001f74 <put_int.skip_prefix_0>
c0001f85:	4f                   	dec    %edi
c0001f86:	eb 02                	jmp    c0001f8a <put_int.put_each_num>

c0001f88 <put_int.full0>:
c0001f88:	b1 30                	mov    $0x30,%cl

c0001f8a <put_int.put_each_num>:
c0001f8a:	51                   	push   %ecx
c0001f8b:	e8 a0 fe ff ff       	call   c0001e30 <put_char>
c0001f90:	83 c4 04             	add    $0x4,%esp
c0001f93:	47                   	inc    %edi
c0001f94:	8a 8f 1c 48 00 c0    	mov    -0x3fffb7e4(%edi),%cl
c0001f9a:	83 ff 08             	cmp    $0x8,%edi
c0001f9d:	7c eb                	jl     c0001f8a <put_int.put_each_num>
c0001f9f:	61                   	popa   
c0001fa0:	c3                   	ret    
c0001fa1:	90                   	nop
c0001fa2:	90                   	nop
c0001fa3:	90                   	nop

c0001fa4 <panic_spin>:
c0001fa4:	55                   	push   %ebp
c0001fa5:	89 e5                	mov    %esp,%ebp
c0001fa7:	83 ec 18             	sub    $0x18,%esp
c0001faa:	e8 4e f6 ff ff       	call   c00015fd <intr_disable>
c0001faf:	c7 04 24 07 34 00 c0 	movl   $0xc0003407,(%esp)
c0001fb6:	e8 67 ff ff ff       	call   c0001f22 <put_str>
c0001fbb:	c7 04 24 15 34 00 c0 	movl   $0xc0003415,(%esp)
c0001fc2:	e8 5b ff ff ff       	call   c0001f22 <put_str>
c0001fc7:	8b 45 08             	mov    0x8(%ebp),%eax
c0001fca:	89 04 24             	mov    %eax,(%esp)
c0001fcd:	e8 50 ff ff ff       	call   c0001f22 <put_str>
c0001fd2:	c7 04 24 0a 00 00 00 	movl   $0xa,(%esp)
c0001fd9:	e8 52 fe ff ff       	call   c0001e30 <put_char>
c0001fde:	c7 04 24 20 34 00 c0 	movl   $0xc0003420,(%esp)
c0001fe5:	e8 38 ff ff ff       	call   c0001f22 <put_str>
c0001fea:	8b 45 0c             	mov    0xc(%ebp),%eax
c0001fed:	89 04 24             	mov    %eax,(%esp)
c0001ff0:	e8 49 ff ff ff       	call   c0001f3e <put_int>
c0001ff5:	c7 04 24 0a 00 00 00 	movl   $0xa,(%esp)
c0001ffc:	e8 2f fe ff ff       	call   c0001e30 <put_char>
c0002001:	c7 04 24 29 34 00 c0 	movl   $0xc0003429,(%esp)
c0002008:	e8 15 ff ff ff       	call   c0001f22 <put_str>
c000200d:	8b 45 10             	mov    0x10(%ebp),%eax
c0002010:	89 04 24             	mov    %eax,(%esp)
c0002013:	e8 0a ff ff ff       	call   c0001f22 <put_str>
c0002018:	c7 04 24 0a 00 00 00 	movl   $0xa,(%esp)
c000201f:	e8 0c fe ff ff       	call   c0001e30 <put_char>
c0002024:	c7 04 24 34 34 00 c0 	movl   $0xc0003434,(%esp)
c000202b:	e8 f2 fe ff ff       	call   c0001f22 <put_str>
c0002030:	8b 45 14             	mov    0x14(%ebp),%eax
c0002033:	89 04 24             	mov    %eax,(%esp)
c0002036:	e8 e7 fe ff ff       	call   c0001f22 <put_str>
c000203b:	c7 04 24 0a 00 00 00 	movl   $0xa,(%esp)
c0002042:	e8 e9 fd ff ff       	call   c0001e30 <put_char>
c0002047:	eb fe                	jmp    c0002047 <panic_spin+0xa3>
c0002049:	90                   	nop
c000204a:	90                   	nop
c000204b:	90                   	nop

c000204c <memset>:
c000204c:	55                   	push   %ebp
c000204d:	89 e5                	mov    %esp,%ebp
c000204f:	83 ec 38             	sub    $0x38,%esp
c0002052:	8b 45 0c             	mov    0xc(%ebp),%eax
c0002055:	88 45 e4             	mov    %al,-0x1c(%ebp)
c0002058:	83 7d 08 00          	cmpl   $0x0,0x8(%ebp)
c000205c:	75 24                	jne    c0002082 <memset+0x36>
c000205e:	c7 44 24 0c 40 34 00 	movl   $0xc0003440,0xc(%esp)
c0002065:	c0 
c0002066:	c7 44 24 08 f4 34 00 	movl   $0xc00034f4,0x8(%esp)
c000206d:	c0 
c000206e:	c7 44 24 04 08 00 00 	movl   $0x8,0x4(%esp)
c0002075:	00 
c0002076:	c7 04 24 4d 34 00 c0 	movl   $0xc000344d,(%esp)
c000207d:	e8 22 ff ff ff       	call   c0001fa4 <panic_spin>
c0002082:	8b 45 08             	mov    0x8(%ebp),%eax
c0002085:	89 45 f4             	mov    %eax,-0xc(%ebp)
c0002088:	eb 0d                	jmp    c0002097 <memset+0x4b>
c000208a:	8b 45 f4             	mov    -0xc(%ebp),%eax
c000208d:	0f b6 55 e4          	movzbl -0x1c(%ebp),%edx
c0002091:	88 10                	mov    %dl,(%eax)
c0002093:	83 45 f4 01          	addl   $0x1,-0xc(%ebp)
c0002097:	83 7d 10 00          	cmpl   $0x0,0x10(%ebp)
c000209b:	0f 95 c0             	setne  %al
c000209e:	83 6d 10 01          	subl   $0x1,0x10(%ebp)
c00020a2:	84 c0                	test   %al,%al
c00020a4:	75 e4                	jne    c000208a <memset+0x3e>
c00020a6:	c9                   	leave  
c00020a7:	c3                   	ret    

c00020a8 <memcpy>:
c00020a8:	55                   	push   %ebp
c00020a9:	89 e5                	mov    %esp,%ebp
c00020ab:	83 ec 28             	sub    $0x28,%esp
c00020ae:	83 7d 08 00          	cmpl   $0x0,0x8(%ebp)
c00020b2:	74 06                	je     c00020ba <memcpy+0x12>
c00020b4:	83 7d 0c 00          	cmpl   $0x0,0xc(%ebp)
c00020b8:	75 24                	jne    c00020de <memcpy+0x36>
c00020ba:	c7 44 24 0c 5a 34 00 	movl   $0xc000345a,0xc(%esp)
c00020c1:	c0 
c00020c2:	c7 44 24 08 ed 34 00 	movl   $0xc00034ed,0x8(%esp)
c00020c9:	c0 
c00020ca:	c7 44 24 04 10 00 00 	movl   $0x10,0x4(%esp)
c00020d1:	00 
c00020d2:	c7 04 24 4d 34 00 c0 	movl   $0xc000344d,(%esp)
c00020d9:	e8 c6 fe ff ff       	call   c0001fa4 <panic_spin>
c00020de:	8b 45 08             	mov    0x8(%ebp),%eax
c00020e1:	89 45 f0             	mov    %eax,-0x10(%ebp)
c00020e4:	8b 45 0c             	mov    0xc(%ebp),%eax
c00020e7:	89 45 f4             	mov    %eax,-0xc(%ebp)
c00020ea:	eb 13                	jmp    c00020ff <memcpy+0x57>
c00020ec:	8b 45 f4             	mov    -0xc(%ebp),%eax
c00020ef:	0f b6 10             	movzbl (%eax),%edx
c00020f2:	8b 45 f0             	mov    -0x10(%ebp),%eax
c00020f5:	88 10                	mov    %dl,(%eax)
c00020f7:	83 45 f0 01          	addl   $0x1,-0x10(%ebp)
c00020fb:	83 45 f4 01          	addl   $0x1,-0xc(%ebp)
c00020ff:	83 7d 10 00          	cmpl   $0x0,0x10(%ebp)
c0002103:	0f 95 c0             	setne  %al
c0002106:	83 6d 10 01          	subl   $0x1,0x10(%ebp)
c000210a:	84 c0                	test   %al,%al
c000210c:	75 de                	jne    c00020ec <memcpy+0x44>
c000210e:	c9                   	leave  
c000210f:	c3                   	ret    

c0002110 <memcmp>:
c0002110:	55                   	push   %ebp
c0002111:	89 e5                	mov    %esp,%ebp
c0002113:	83 ec 28             	sub    $0x28,%esp
c0002116:	83 7d 08 00          	cmpl   $0x0,0x8(%ebp)
c000211a:	74 06                	je     c0002122 <memcmp+0x12>
c000211c:	83 7d 0c 00          	cmpl   $0x0,0xc(%ebp)
c0002120:	75 24                	jne    c0002146 <memcmp+0x36>
c0002122:	c7 44 24 0c 77 34 00 	movl   $0xc0003477,0xc(%esp)
c0002129:	c0 
c000212a:	c7 44 24 08 e6 34 00 	movl   $0xc00034e6,0x8(%esp)
c0002131:	c0 
c0002132:	c7 44 24 04 19 00 00 	movl   $0x19,0x4(%esp)
c0002139:	00 
c000213a:	c7 04 24 4d 34 00 c0 	movl   $0xc000344d,(%esp)
c0002141:	e8 5e fe ff ff       	call   c0001fa4 <panic_spin>
c0002146:	8b 45 08             	mov    0x8(%ebp),%eax
c0002149:	89 45 f0             	mov    %eax,-0x10(%ebp)
c000214c:	8b 45 0c             	mov    0xc(%ebp),%eax
c000214f:	89 45 f4             	mov    %eax,-0xc(%ebp)
c0002152:	eb 36                	jmp    c000218a <memcmp+0x7a>
c0002154:	8b 45 f0             	mov    -0x10(%ebp),%eax
c0002157:	0f b6 10             	movzbl (%eax),%edx
c000215a:	8b 45 f4             	mov    -0xc(%ebp),%eax
c000215d:	0f b6 00             	movzbl (%eax),%eax
c0002160:	38 c2                	cmp    %al,%dl
c0002162:	74 1e                	je     c0002182 <memcmp+0x72>
c0002164:	8b 45 f0             	mov    -0x10(%ebp),%eax
c0002167:	0f b6 10             	movzbl (%eax),%edx
c000216a:	8b 45 f4             	mov    -0xc(%ebp),%eax
c000216d:	0f b6 00             	movzbl (%eax),%eax
c0002170:	38 c2                	cmp    %al,%dl
c0002172:	76 07                	jbe    c000217b <memcmp+0x6b>
c0002174:	b8 01 00 00 00       	mov    $0x1,%eax
c0002179:	eb 05                	jmp    c0002180 <memcmp+0x70>
c000217b:	b8 ff ff ff ff       	mov    $0xffffffff,%eax
c0002180:	eb 1c                	jmp    c000219e <memcmp+0x8e>
c0002182:	83 45 f0 01          	addl   $0x1,-0x10(%ebp)
c0002186:	83 45 f4 01          	addl   $0x1,-0xc(%ebp)
c000218a:	83 7d 10 00          	cmpl   $0x0,0x10(%ebp)
c000218e:	0f 95 c0             	setne  %al
c0002191:	83 6d 10 01          	subl   $0x1,0x10(%ebp)
c0002195:	84 c0                	test   %al,%al
c0002197:	75 bb                	jne    c0002154 <memcmp+0x44>
c0002199:	b8 00 00 00 00       	mov    $0x0,%eax
c000219e:	c9                   	leave  
c000219f:	c3                   	ret    

c00021a0 <strcpy>:
c00021a0:	55                   	push   %ebp
c00021a1:	89 e5                	mov    %esp,%ebp
c00021a3:	83 ec 28             	sub    $0x28,%esp
c00021a6:	83 7d 08 00          	cmpl   $0x0,0x8(%ebp)
c00021aa:	74 06                	je     c00021b2 <strcpy+0x12>
c00021ac:	83 7d 0c 00          	cmpl   $0x0,0xc(%ebp)
c00021b0:	75 24                	jne    c00021d6 <strcpy+0x36>
c00021b2:	c7 44 24 0c 5a 34 00 	movl   $0xc000345a,0xc(%esp)
c00021b9:	c0 
c00021ba:	c7 44 24 08 df 34 00 	movl   $0xc00034df,0x8(%esp)
c00021c1:	c0 
c00021c2:	c7 44 24 04 2a 00 00 	movl   $0x2a,0x4(%esp)
c00021c9:	00 
c00021ca:	c7 04 24 4d 34 00 c0 	movl   $0xc000344d,(%esp)
c00021d1:	e8 ce fd ff ff       	call   c0001fa4 <panic_spin>
c00021d6:	8b 45 08             	mov    0x8(%ebp),%eax
c00021d9:	89 45 f4             	mov    %eax,-0xc(%ebp)
c00021dc:	8b 45 0c             	mov    0xc(%ebp),%eax
c00021df:	0f b6 10             	movzbl (%eax),%edx
c00021e2:	8b 45 08             	mov    0x8(%ebp),%eax
c00021e5:	88 10                	mov    %dl,(%eax)
c00021e7:	8b 45 08             	mov    0x8(%ebp),%eax
c00021ea:	0f b6 00             	movzbl (%eax),%eax
c00021ed:	84 c0                	test   %al,%al
c00021ef:	0f 95 c0             	setne  %al
c00021f2:	83 45 08 01          	addl   $0x1,0x8(%ebp)
c00021f6:	83 45 0c 01          	addl   $0x1,0xc(%ebp)
c00021fa:	84 c0                	test   %al,%al
c00021fc:	75 de                	jne    c00021dc <strcpy+0x3c>
c00021fe:	8b 45 f4             	mov    -0xc(%ebp),%eax
c0002201:	c9                   	leave  
c0002202:	c3                   	ret    

c0002203 <strlen>:
c0002203:	55                   	push   %ebp
c0002204:	89 e5                	mov    %esp,%ebp
c0002206:	83 ec 28             	sub    $0x28,%esp
c0002209:	83 7d 08 00          	cmpl   $0x0,0x8(%ebp)
c000220d:	75 24                	jne    c0002233 <strlen+0x30>
c000220f:	c7 44 24 0c 90 34 00 	movl   $0xc0003490,0xc(%esp)
c0002216:	c0 
c0002217:	c7 44 24 08 d8 34 00 	movl   $0xc00034d8,0x8(%esp)
c000221e:	c0 
c000221f:	c7 44 24 04 33 00 00 	movl   $0x33,0x4(%esp)
c0002226:	00 
c0002227:	c7 04 24 4d 34 00 c0 	movl   $0xc000344d,(%esp)
c000222e:	e8 71 fd ff ff       	call   c0001fa4 <panic_spin>
c0002233:	8b 45 08             	mov    0x8(%ebp),%eax
c0002236:	89 45 f4             	mov    %eax,-0xc(%ebp)
c0002239:	8b 45 f4             	mov    -0xc(%ebp),%eax
c000223c:	0f b6 00             	movzbl (%eax),%eax
c000223f:	84 c0                	test   %al,%al
c0002241:	0f 95 c0             	setne  %al
c0002244:	83 45 f4 01          	addl   $0x1,-0xc(%ebp)
c0002248:	84 c0                	test   %al,%al
c000224a:	75 ed                	jne    c0002239 <strlen+0x36>
c000224c:	8b 55 f4             	mov    -0xc(%ebp),%edx
c000224f:	8b 45 08             	mov    0x8(%ebp),%eax
c0002252:	89 d1                	mov    %edx,%ecx
c0002254:	29 c1                	sub    %eax,%ecx
c0002256:	89 c8                	mov    %ecx,%eax
c0002258:	83 e8 01             	sub    $0x1,%eax
c000225b:	c9                   	leave  
c000225c:	c3                   	ret    

c000225d <strcmp>:
c000225d:	55                   	push   %ebp
c000225e:	89 e5                	mov    %esp,%ebp
c0002260:	83 ec 18             	sub    $0x18,%esp
c0002263:	83 7d 08 00          	cmpl   $0x0,0x8(%ebp)
c0002267:	74 09                	je     c0002272 <strcmp+0x15>
c0002269:	83 7d 0c 00          	cmpl   $0x0,0xc(%ebp)
c000226d:	74 03                	je     c0002272 <strcmp+0x15>
c000226f:	90                   	nop
c0002270:	eb 2e                	jmp    c00022a0 <strcmp+0x43>
c0002272:	c7 44 24 0c 9c 34 00 	movl   $0xc000349c,0xc(%esp)
c0002279:	c0 
c000227a:	c7 44 24 08 d1 34 00 	movl   $0xc00034d1,0x8(%esp)
c0002281:	c0 
c0002282:	c7 44 24 04 3c 00 00 	movl   $0x3c,0x4(%esp)
c0002289:	00 
c000228a:	c7 04 24 4d 34 00 c0 	movl   $0xc000344d,(%esp)
c0002291:	e8 0e fd ff ff       	call   c0001fa4 <panic_spin>
c0002296:	eb 08                	jmp    c00022a0 <strcmp+0x43>
c0002298:	83 45 08 01          	addl   $0x1,0x8(%ebp)
c000229c:	83 45 0c 01          	addl   $0x1,0xc(%ebp)
c00022a0:	8b 45 08             	mov    0x8(%ebp),%eax
c00022a3:	0f b6 00             	movzbl (%eax),%eax
c00022a6:	84 c0                	test   %al,%al
c00022a8:	74 10                	je     c00022ba <strcmp+0x5d>
c00022aa:	8b 45 08             	mov    0x8(%ebp),%eax
c00022ad:	0f b6 10             	movzbl (%eax),%edx
c00022b0:	8b 45 0c             	mov    0xc(%ebp),%eax
c00022b3:	0f b6 00             	movzbl (%eax),%eax
c00022b6:	38 c2                	cmp    %al,%dl
c00022b8:	74 de                	je     c0002298 <strcmp+0x3b>
c00022ba:	8b 45 08             	mov    0x8(%ebp),%eax
c00022bd:	0f b6 10             	movzbl (%eax),%edx
c00022c0:	8b 45 0c             	mov    0xc(%ebp),%eax
c00022c3:	0f b6 00             	movzbl (%eax),%eax
c00022c6:	38 c2                	cmp    %al,%dl
c00022c8:	7c 13                	jl     c00022dd <strcmp+0x80>
c00022ca:	8b 45 08             	mov    0x8(%ebp),%eax
c00022cd:	0f b6 10             	movzbl (%eax),%edx
c00022d0:	8b 45 0c             	mov    0xc(%ebp),%eax
c00022d3:	0f b6 00             	movzbl (%eax),%eax
c00022d6:	38 c2                	cmp    %al,%dl
c00022d8:	0f 9f c0             	setg   %al
c00022db:	eb 05                	jmp    c00022e2 <strcmp+0x85>
c00022dd:	b8 ff ff ff ff       	mov    $0xffffffff,%eax
c00022e2:	c9                   	leave  
c00022e3:	c3                   	ret    

c00022e4 <strchr>:
c00022e4:	55                   	push   %ebp
c00022e5:	89 e5                	mov    %esp,%ebp
c00022e7:	83 ec 28             	sub    $0x28,%esp
c00022ea:	8b 45 0c             	mov    0xc(%ebp),%eax
c00022ed:	88 45 f4             	mov    %al,-0xc(%ebp)
c00022f0:	83 7d 08 00          	cmpl   $0x0,0x8(%ebp)
c00022f4:	75 3c                	jne    c0002332 <strchr+0x4e>
c00022f6:	c7 44 24 0c 90 34 00 	movl   $0xc0003490,0xc(%esp)
c00022fd:	c0 
c00022fe:	c7 44 24 08 ca 34 00 	movl   $0xc00034ca,0x8(%esp)
c0002305:	c0 
c0002306:	c7 44 24 04 47 00 00 	movl   $0x47,0x4(%esp)
c000230d:	00 
c000230e:	c7 04 24 4d 34 00 c0 	movl   $0xc000344d,(%esp)
c0002315:	e8 8a fc ff ff       	call   c0001fa4 <panic_spin>
c000231a:	eb 17                	jmp    c0002333 <strchr+0x4f>
c000231c:	8b 45 08             	mov    0x8(%ebp),%eax
c000231f:	0f b6 00             	movzbl (%eax),%eax
c0002322:	3a 45 f4             	cmp    -0xc(%ebp),%al
c0002325:	75 05                	jne    c000232c <strchr+0x48>
c0002327:	8b 45 08             	mov    0x8(%ebp),%eax
c000232a:	eb 16                	jmp    c0002342 <strchr+0x5e>
c000232c:	83 45 08 01          	addl   $0x1,0x8(%ebp)
c0002330:	eb 01                	jmp    c0002333 <strchr+0x4f>
c0002332:	90                   	nop
c0002333:	8b 45 08             	mov    0x8(%ebp),%eax
c0002336:	0f b6 00             	movzbl (%eax),%eax
c0002339:	84 c0                	test   %al,%al
c000233b:	75 df                	jne    c000231c <strchr+0x38>
c000233d:	b8 00 00 00 00       	mov    $0x0,%eax
c0002342:	c9                   	leave  
c0002343:	c3                   	ret    

c0002344 <strrchr>:
c0002344:	55                   	push   %ebp
c0002345:	89 e5                	mov    %esp,%ebp
c0002347:	83 ec 38             	sub    $0x38,%esp
c000234a:	8b 45 0c             	mov    0xc(%ebp),%eax
c000234d:	88 45 e4             	mov    %al,-0x1c(%ebp)
c0002350:	83 7d 08 00          	cmpl   $0x0,0x8(%ebp)
c0002354:	75 24                	jne    c000237a <strrchr+0x36>
c0002356:	c7 44 24 0c 90 34 00 	movl   $0xc0003490,0xc(%esp)
c000235d:	c0 
c000235e:	c7 44 24 08 c2 34 00 	movl   $0xc00034c2,0x8(%esp)
c0002365:	c0 
c0002366:	c7 44 24 04 55 00 00 	movl   $0x55,0x4(%esp)
c000236d:	00 
c000236e:	c7 04 24 4d 34 00 c0 	movl   $0xc000344d,(%esp)
c0002375:	e8 2a fc ff ff       	call   c0001fa4 <panic_spin>
c000237a:	c7 45 f4 00 00 00 00 	movl   $0x0,-0xc(%ebp)
c0002381:	eb 1b                	jmp    c000239e <strrchr+0x5a>
c0002383:	8b 45 08             	mov    0x8(%ebp),%eax
c0002386:	0f b6 00             	movzbl (%eax),%eax
c0002389:	0f be d0             	movsbl %al,%edx
c000238c:	0f b6 45 e4          	movzbl -0x1c(%ebp),%eax
c0002390:	39 c2                	cmp    %eax,%edx
c0002392:	75 06                	jne    c000239a <strrchr+0x56>
c0002394:	8b 45 08             	mov    0x8(%ebp),%eax
c0002397:	89 45 f4             	mov    %eax,-0xc(%ebp)
c000239a:	83 45 08 01          	addl   $0x1,0x8(%ebp)
c000239e:	8b 45 08             	mov    0x8(%ebp),%eax
c00023a1:	0f b6 00             	movzbl (%eax),%eax
c00023a4:	84 c0                	test   %al,%al
c00023a6:	75 db                	jne    c0002383 <strrchr+0x3f>
c00023a8:	8b 45 08             	mov    0x8(%ebp),%eax
c00023ab:	c9                   	leave  
c00023ac:	c3                   	ret    

c00023ad <strcat>:
c00023ad:	55                   	push   %ebp
c00023ae:	89 e5                	mov    %esp,%ebp
c00023b0:	83 ec 28             	sub    $0x28,%esp
c00023b3:	83 7d 08 00          	cmpl   $0x0,0x8(%ebp)
c00023b7:	74 06                	je     c00023bf <strcat+0x12>
c00023b9:	83 7d 0c 00          	cmpl   $0x0,0xc(%ebp)
c00023bd:	75 24                	jne    c00023e3 <strcat+0x36>
c00023bf:	c7 44 24 0c 5a 34 00 	movl   $0xc000345a,0xc(%esp)
c00023c6:	c0 
c00023c7:	c7 44 24 08 bb 34 00 	movl   $0xc00034bb,0x8(%esp)
c00023ce:	c0 
c00023cf:	c7 44 24 04 64 00 00 	movl   $0x64,0x4(%esp)
c00023d6:	00 
c00023d7:	c7 04 24 4d 34 00 c0 	movl   $0xc000344d,(%esp)
c00023de:	e8 c1 fb ff ff       	call   c0001fa4 <panic_spin>
c00023e3:	8b 45 08             	mov    0x8(%ebp),%eax
c00023e6:	89 45 f4             	mov    %eax,-0xc(%ebp)
c00023e9:	8b 45 f4             	mov    -0xc(%ebp),%eax
c00023ec:	0f b6 00             	movzbl (%eax),%eax
c00023ef:	84 c0                	test   %al,%al
c00023f1:	0f 95 c0             	setne  %al
c00023f4:	83 45 f4 01          	addl   $0x1,-0xc(%ebp)
c00023f8:	84 c0                	test   %al,%al
c00023fa:	75 ed                	jne    c00023e9 <strcat+0x3c>
c00023fc:	83 6d f4 01          	subl   $0x1,-0xc(%ebp)
c0002400:	8b 45 0c             	mov    0xc(%ebp),%eax
c0002403:	0f b6 10             	movzbl (%eax),%edx
c0002406:	8b 45 f4             	mov    -0xc(%ebp),%eax
c0002409:	88 10                	mov    %dl,(%eax)
c000240b:	8b 45 f4             	mov    -0xc(%ebp),%eax
c000240e:	0f b6 00             	movzbl (%eax),%eax
c0002411:	84 c0                	test   %al,%al
c0002413:	0f 95 c0             	setne  %al
c0002416:	83 45 f4 01          	addl   $0x1,-0xc(%ebp)
c000241a:	83 45 0c 01          	addl   $0x1,0xc(%ebp)
c000241e:	84 c0                	test   %al,%al
c0002420:	75 de                	jne    c0002400 <strcat+0x53>
c0002422:	8b 45 08             	mov    0x8(%ebp),%eax
c0002425:	c9                   	leave  
c0002426:	c3                   	ret    

c0002427 <strchrs>:
c0002427:	55                   	push   %ebp
c0002428:	89 e5                	mov    %esp,%ebp
c000242a:	83 ec 38             	sub    $0x38,%esp
c000242d:	8b 45 0c             	mov    0xc(%ebp),%eax
c0002430:	88 45 e4             	mov    %al,-0x1c(%ebp)
c0002433:	83 7d 08 00          	cmpl   $0x0,0x8(%ebp)
c0002437:	75 24                	jne    c000245d <strchrs+0x36>
c0002439:	c7 44 24 0c 90 34 00 	movl   $0xc0003490,0xc(%esp)
c0002440:	c0 
c0002441:	c7 44 24 08 b3 34 00 	movl   $0xc00034b3,0x8(%esp)
c0002448:	c0 
c0002449:	c7 44 24 04 70 00 00 	movl   $0x70,0x4(%esp)
c0002450:	00 
c0002451:	c7 04 24 4d 34 00 c0 	movl   $0xc000344d,(%esp)
c0002458:	e8 47 fb ff ff       	call   c0001fa4 <panic_spin>
c000245d:	c7 45 f4 00 00 00 00 	movl   $0x0,-0xc(%ebp)
c0002464:	eb 19                	jmp    c000247f <strchrs+0x58>
c0002466:	8b 45 08             	mov    0x8(%ebp),%eax
c0002469:	0f b6 00             	movzbl (%eax),%eax
c000246c:	0f be d0             	movsbl %al,%edx
c000246f:	0f b6 45 e4          	movzbl -0x1c(%ebp),%eax
c0002473:	39 c2                	cmp    %eax,%edx
c0002475:	75 04                	jne    c000247b <strchrs+0x54>
c0002477:	83 45 f4 01          	addl   $0x1,-0xc(%ebp)
c000247b:	83 45 08 01          	addl   $0x1,0x8(%ebp)
c000247f:	8b 45 08             	mov    0x8(%ebp),%eax
c0002482:	0f b6 00             	movzbl (%eax),%eax
c0002485:	84 c0                	test   %al,%al
c0002487:	75 dd                	jne    c0002466 <strchrs+0x3f>
c0002489:	8b 45 f4             	mov    -0xc(%ebp),%eax
c000248c:	c9                   	leave  
c000248d:	c3                   	ret    
c000248e:	90                   	nop
c000248f:	90                   	nop

c0002490 <vaddr_get>:
c0002490:	55                   	push   %ebp
c0002491:	89 e5                	mov    %esp,%ebp
c0002493:	83 ec 28             	sub    $0x28,%esp
c0002496:	c7 45 ec 00 00 00 00 	movl   $0x0,-0x14(%ebp)
c000249d:	c7 45 f0 ff ff ff ff 	movl   $0xffffffff,-0x10(%ebp)
c00024a4:	c7 45 f4 00 00 00 00 	movl   $0x0,-0xc(%ebp)
c00024ab:	83 7d 08 01          	cmpl   $0x1,0x8(%ebp)
c00024af:	75 60                	jne    c0002511 <vaddr_get+0x81>
c00024b1:	8b 45 0c             	mov    0xc(%ebp),%eax
c00024b4:	89 44 24 04          	mov    %eax,0x4(%esp)
c00024b8:	c7 04 24 94 4a 00 c0 	movl   $0xc0004a94,(%esp)
c00024bf:	e8 a9 05 00 00       	call   c0002a6d <bitmap_scan>
c00024c4:	89 45 f0             	mov    %eax,-0x10(%ebp)
c00024c7:	83 7d f0 ff          	cmpl   $0xffffffff,-0x10(%ebp)
c00024cb:	75 2c                	jne    c00024f9 <vaddr_get+0x69>
c00024cd:	b8 00 00 00 00       	mov    $0x0,%eax
c00024d2:	eb 40                	jmp    c0002514 <vaddr_get+0x84>
c00024d4:	8b 45 f0             	mov    -0x10(%ebp),%eax
c00024d7:	8b 55 f4             	mov    -0xc(%ebp),%edx
c00024da:	8d 04 02             	lea    (%edx,%eax,1),%eax
c00024dd:	83 45 f4 01          	addl   $0x1,-0xc(%ebp)
c00024e1:	c7 44 24 08 01 00 00 	movl   $0x1,0x8(%esp)
c00024e8:	00 
c00024e9:	89 44 24 04          	mov    %eax,0x4(%esp)
c00024ed:	c7 04 24 94 4a 00 c0 	movl   $0xc0004a94,(%esp)
c00024f4:	e8 a8 06 00 00       	call   c0002ba1 <bitmap_set>
c00024f9:	8b 45 f4             	mov    -0xc(%ebp),%eax
c00024fc:	3b 45 0c             	cmp    0xc(%ebp),%eax
c00024ff:	72 d3                	jb     c00024d4 <vaddr_get+0x44>
c0002501:	a1 9c 4a 00 c0       	mov    0xc0004a9c,%eax
c0002506:	8b 55 f0             	mov    -0x10(%ebp),%edx
c0002509:	c1 e2 0c             	shl    $0xc,%edx
c000250c:	01 d0                	add    %edx,%eax
c000250e:	89 45 ec             	mov    %eax,-0x14(%ebp)
c0002511:	8b 45 ec             	mov    -0x14(%ebp),%eax
c0002514:	c9                   	leave  
c0002515:	c3                   	ret    

c0002516 <pte_ptr>:
c0002516:	55                   	push   %ebp
c0002517:	89 e5                	mov    %esp,%ebp
c0002519:	83 ec 10             	sub    $0x10,%esp
c000251c:	8b 45 08             	mov    0x8(%ebp),%eax
c000251f:	25 00 00 c0 ff       	and    $0xffc00000,%eax
c0002524:	89 c2                	mov    %eax,%edx
c0002526:	c1 ea 0a             	shr    $0xa,%edx
c0002529:	8b 45 08             	mov    0x8(%ebp),%eax
c000252c:	25 00 f0 3f 00       	and    $0x3ff000,%eax
c0002531:	c1 e8 0c             	shr    $0xc,%eax
c0002534:	c1 e0 02             	shl    $0x2,%eax
c0002537:	8d 04 02             	lea    (%edx,%eax,1),%eax
c000253a:	2d 00 00 40 00       	sub    $0x400000,%eax
c000253f:	89 45 fc             	mov    %eax,-0x4(%ebp)
c0002542:	8b 45 fc             	mov    -0x4(%ebp),%eax
c0002545:	c9                   	leave  
c0002546:	c3                   	ret    

c0002547 <pde_ptr>:
c0002547:	55                   	push   %ebp
c0002548:	89 e5                	mov    %esp,%ebp
c000254a:	83 ec 10             	sub    $0x10,%esp
c000254d:	8b 45 08             	mov    0x8(%ebp),%eax
c0002550:	c1 e8 16             	shr    $0x16,%eax
c0002553:	c1 e0 02             	shl    $0x2,%eax
c0002556:	2d 00 10 00 00       	sub    $0x1000,%eax
c000255b:	89 45 fc             	mov    %eax,-0x4(%ebp)
c000255e:	8b 45 fc             	mov    -0x4(%ebp),%eax
c0002561:	c9                   	leave  
c0002562:	c3                   	ret    

c0002563 <palloc>:
c0002563:	55                   	push   %ebp
c0002564:	89 e5                	mov    %esp,%ebp
c0002566:	83 ec 28             	sub    $0x28,%esp
c0002569:	8b 45 08             	mov    0x8(%ebp),%eax
c000256c:	c7 44 24 04 01 00 00 	movl   $0x1,0x4(%esp)
c0002573:	00 
c0002574:	89 04 24             	mov    %eax,(%esp)
c0002577:	e8 f1 04 00 00       	call   c0002a6d <bitmap_scan>
c000257c:	89 45 f0             	mov    %eax,-0x10(%ebp)
c000257f:	83 7d f0 ff          	cmpl   $0xffffffff,-0x10(%ebp)
c0002583:	75 07                	jne    c000258c <palloc+0x29>
c0002585:	b8 00 00 00 00       	mov    $0x0,%eax
c000258a:	eb 2e                	jmp    c00025ba <palloc+0x57>
c000258c:	8b 45 08             	mov    0x8(%ebp),%eax
c000258f:	c7 44 24 08 01 00 00 	movl   $0x1,0x8(%esp)
c0002596:	00 
c0002597:	8b 55 f0             	mov    -0x10(%ebp),%edx
c000259a:	89 54 24 04          	mov    %edx,0x4(%esp)
c000259e:	89 04 24             	mov    %eax,(%esp)
c00025a1:	e8 fb 05 00 00       	call   c0002ba1 <bitmap_set>
c00025a6:	8b 45 08             	mov    0x8(%ebp),%eax
c00025a9:	8b 40 08             	mov    0x8(%eax),%eax
c00025ac:	8b 55 f0             	mov    -0x10(%ebp),%edx
c00025af:	c1 e2 0c             	shl    $0xc,%edx
c00025b2:	01 d0                	add    %edx,%eax
c00025b4:	89 45 f4             	mov    %eax,-0xc(%ebp)
c00025b7:	8b 45 f4             	mov    -0xc(%ebp),%eax
c00025ba:	c9                   	leave  
c00025bb:	c3                   	ret    

c00025bc <page_table_add>:
c00025bc:	55                   	push   %ebp
c00025bd:	89 e5                	mov    %esp,%ebp
c00025bf:	83 ec 38             	sub    $0x38,%esp
c00025c2:	8b 45 08             	mov    0x8(%ebp),%eax
c00025c5:	89 45 e4             	mov    %eax,-0x1c(%ebp)
c00025c8:	8b 45 0c             	mov    0xc(%ebp),%eax
c00025cb:	89 45 e8             	mov    %eax,-0x18(%ebp)
c00025ce:	8b 45 e4             	mov    -0x1c(%ebp),%eax
c00025d1:	89 04 24             	mov    %eax,(%esp)
c00025d4:	e8 6e ff ff ff       	call   c0002547 <pde_ptr>
c00025d9:	89 45 ec             	mov    %eax,-0x14(%ebp)
c00025dc:	8b 45 e4             	mov    -0x1c(%ebp),%eax
c00025df:	89 04 24             	mov    %eax,(%esp)
c00025e2:	e8 2f ff ff ff       	call   c0002516 <pte_ptr>
c00025e7:	89 45 f0             	mov    %eax,-0x10(%ebp)
c00025ea:	8b 45 ec             	mov    -0x14(%ebp),%eax
c00025ed:	8b 00                	mov    (%eax),%eax
c00025ef:	83 e0 01             	and    $0x1,%eax
c00025f2:	84 c0                	test   %al,%al
c00025f4:	0f 84 81 00 00 00    	je     c000267b <page_table_add+0xbf>
c00025fa:	8b 45 f0             	mov    -0x10(%ebp),%eax
c00025fd:	8b 00                	mov    (%eax),%eax
c00025ff:	83 e0 01             	and    $0x1,%eax
c0002602:	85 c0                	test   %eax,%eax
c0002604:	74 24                	je     c000262a <page_table_add+0x6e>
c0002606:	c7 44 24 0c fc 34 00 	movl   $0xc00034fc,0xc(%esp)
c000260d:	c0 
c000260e:	c7 44 24 08 2e 36 00 	movl   $0xc000362e,0x8(%esp)
c0002615:	c0 
c0002616:	c7 44 24 04 74 00 00 	movl   $0x74,0x4(%esp)
c000261d:	00 
c000261e:	c7 04 24 0a 35 00 c0 	movl   $0xc000350a,(%esp)
c0002625:	e8 7a f9 ff ff       	call   c0001fa4 <panic_spin>
c000262a:	8b 45 f0             	mov    -0x10(%ebp),%eax
c000262d:	8b 00                	mov    (%eax),%eax
c000262f:	83 e0 01             	and    $0x1,%eax
c0002632:	85 c0                	test   %eax,%eax
c0002634:	75 12                	jne    c0002648 <page_table_add+0x8c>
c0002636:	8b 45 e8             	mov    -0x18(%ebp),%eax
c0002639:	89 c2                	mov    %eax,%edx
c000263b:	83 ca 07             	or     $0x7,%edx
c000263e:	8b 45 f0             	mov    -0x10(%ebp),%eax
c0002641:	89 10                	mov    %edx,(%eax)
c0002643:	e9 ac 00 00 00       	jmp    c00026f4 <page_table_add+0x138>
c0002648:	c7 44 24 0c 1a 35 00 	movl   $0xc000351a,0xc(%esp)
c000264f:	c0 
c0002650:	c7 44 24 08 2e 36 00 	movl   $0xc000362e,0x8(%esp)
c0002657:	c0 
c0002658:	c7 44 24 04 7c 00 00 	movl   $0x7c,0x4(%esp)
c000265f:	00 
c0002660:	c7 04 24 0a 35 00 c0 	movl   $0xc000350a,(%esp)
c0002667:	e8 38 f9 ff ff       	call   c0001fa4 <panic_spin>
c000266c:	8b 45 e8             	mov    -0x18(%ebp),%eax
c000266f:	89 c2                	mov    %eax,%edx
c0002671:	83 ca 07             	or     $0x7,%edx
c0002674:	8b 45 f0             	mov    -0x10(%ebp),%eax
c0002677:	89 10                	mov    %edx,(%eax)
c0002679:	eb 79                	jmp    c00026f4 <page_table_add+0x138>
c000267b:	c7 04 24 a0 4a 00 c0 	movl   $0xc0004aa0,(%esp)
c0002682:	e8 dc fe ff ff       	call   c0002563 <palloc>
c0002687:	89 45 f4             	mov    %eax,-0xc(%ebp)
c000268a:	8b 45 f4             	mov    -0xc(%ebp),%eax
c000268d:	89 c2                	mov    %eax,%edx
c000268f:	83 ca 07             	or     $0x7,%edx
c0002692:	8b 45 ec             	mov    -0x14(%ebp),%eax
c0002695:	89 10                	mov    %edx,(%eax)
c0002697:	8b 45 f0             	mov    -0x10(%ebp),%eax
c000269a:	25 00 f0 ff ff       	and    $0xfffff000,%eax
c000269f:	c7 44 24 08 00 10 00 	movl   $0x1000,0x8(%esp)
c00026a6:	00 
c00026a7:	c7 44 24 04 00 00 00 	movl   $0x0,0x4(%esp)
c00026ae:	00 
c00026af:	89 04 24             	mov    %eax,(%esp)
c00026b2:	e8 95 f9 ff ff       	call   c000204c <memset>
c00026b7:	8b 45 f0             	mov    -0x10(%ebp),%eax
c00026ba:	8b 00                	mov    (%eax),%eax
c00026bc:	83 e0 01             	and    $0x1,%eax
c00026bf:	85 c0                	test   %eax,%eax
c00026c1:	74 24                	je     c00026e7 <page_table_add+0x12b>
c00026c3:	c7 44 24 0c fc 34 00 	movl   $0xc00034fc,0xc(%esp)
c00026ca:	c0 
c00026cb:	c7 44 24 08 2e 36 00 	movl   $0xc000362e,0x8(%esp)
c00026d2:	c0 
c00026d3:	c7 44 24 04 89 00 00 	movl   $0x89,0x4(%esp)
c00026da:	00 
c00026db:	c7 04 24 0a 35 00 c0 	movl   $0xc000350a,(%esp)
c00026e2:	e8 bd f8 ff ff       	call   c0001fa4 <panic_spin>
c00026e7:	8b 45 e8             	mov    -0x18(%ebp),%eax
c00026ea:	89 c2                	mov    %eax,%edx
c00026ec:	83 ca 07             	or     $0x7,%edx
c00026ef:	8b 45 f0             	mov    -0x10(%ebp),%eax
c00026f2:	89 10                	mov    %edx,(%eax)
c00026f4:	c9                   	leave  
c00026f5:	c3                   	ret    

c00026f6 <malloc_page>:
c00026f6:	55                   	push   %ebp
c00026f7:	89 e5                	mov    %esp,%ebp
c00026f9:	83 ec 38             	sub    $0x38,%esp
c00026fc:	83 7d 0c 00          	cmpl   $0x0,0xc(%ebp)
c0002700:	74 09                	je     c000270b <malloc_page+0x15>
c0002702:	81 7d 0c ff 0e 00 00 	cmpl   $0xeff,0xc(%ebp)
c0002709:	76 24                	jbe    c000272f <malloc_page+0x39>
c000270b:	c7 44 24 0c 29 35 00 	movl   $0xc0003529,0xc(%esp)
c0002712:	c0 
c0002713:	c7 44 24 08 22 36 00 	movl   $0xc0003622,0x8(%esp)
c000271a:	c0 
c000271b:	c7 44 24 04 91 00 00 	movl   $0x91,0x4(%esp)
c0002722:	00 
c0002723:	c7 04 24 0a 35 00 c0 	movl   $0xc000350a,(%esp)
c000272a:	e8 75 f8 ff ff       	call   c0001fa4 <panic_spin>
c000272f:	8b 45 0c             	mov    0xc(%ebp),%eax
c0002732:	89 44 24 04          	mov    %eax,0x4(%esp)
c0002736:	8b 45 08             	mov    0x8(%ebp),%eax
c0002739:	89 04 24             	mov    %eax,(%esp)
c000273c:	e8 4f fd ff ff       	call   c0002490 <vaddr_get>
c0002741:	89 45 e4             	mov    %eax,-0x1c(%ebp)
c0002744:	83 7d e4 00          	cmpl   $0x0,-0x1c(%ebp)
c0002748:	75 07                	jne    c0002751 <malloc_page+0x5b>
c000274a:	b8 00 00 00 00       	mov    $0x0,%eax
c000274f:	eb 74                	jmp    c00027c5 <malloc_page+0xcf>
c0002751:	8b 45 e4             	mov    -0x1c(%ebp),%eax
c0002754:	89 45 e8             	mov    %eax,-0x18(%ebp)
c0002757:	8b 45 0c             	mov    0xc(%ebp),%eax
c000275a:	89 45 ec             	mov    %eax,-0x14(%ebp)
c000275d:	8b 45 08             	mov    0x8(%ebp),%eax
c0002760:	83 e0 01             	and    $0x1,%eax
c0002763:	84 c0                	test   %al,%al
c0002765:	74 07                	je     c000276e <malloc_page+0x78>
c0002767:	b8 a0 4a 00 c0       	mov    $0xc0004aa0,%eax
c000276c:	eb 05                	jmp    c0002773 <malloc_page+0x7d>
c000276e:	b8 84 4a 00 c0       	mov    $0xc0004a84,%eax
c0002773:	89 45 f0             	mov    %eax,-0x10(%ebp)
c0002776:	c7 45 f4 00 00 00 00 	movl   $0x0,-0xc(%ebp)
c000277d:	eb 34                	jmp    c00027b3 <malloc_page+0xbd>
c000277f:	8b 45 f0             	mov    -0x10(%ebp),%eax
c0002782:	89 04 24             	mov    %eax,(%esp)
c0002785:	e8 d9 fd ff ff       	call   c0002563 <palloc>
c000278a:	89 45 f4             	mov    %eax,-0xc(%ebp)
c000278d:	83 7d f4 00          	cmpl   $0x0,-0xc(%ebp)
c0002791:	75 07                	jne    c000279a <malloc_page+0xa4>
c0002793:	b8 00 00 00 00       	mov    $0x0,%eax
c0002798:	eb 2b                	jmp    c00027c5 <malloc_page+0xcf>
c000279a:	8b 45 e8             	mov    -0x18(%ebp),%eax
c000279d:	8b 55 f4             	mov    -0xc(%ebp),%edx
c00027a0:	89 54 24 04          	mov    %edx,0x4(%esp)
c00027a4:	89 04 24             	mov    %eax,(%esp)
c00027a7:	e8 10 fe ff ff       	call   c00025bc <page_table_add>
c00027ac:	81 45 e8 00 10 00 00 	addl   $0x1000,-0x18(%ebp)
c00027b3:	83 7d ec 00          	cmpl   $0x0,-0x14(%ebp)
c00027b7:	0f 95 c0             	setne  %al
c00027ba:	83 6d ec 01          	subl   $0x1,-0x14(%ebp)
c00027be:	84 c0                	test   %al,%al
c00027c0:	75 bd                	jne    c000277f <malloc_page+0x89>
c00027c2:	8b 45 e4             	mov    -0x1c(%ebp),%eax
c00027c5:	c9                   	leave  
c00027c6:	c3                   	ret    

c00027c7 <get_kernel_pages>:
c00027c7:	55                   	push   %ebp
c00027c8:	89 e5                	mov    %esp,%ebp
c00027ca:	83 ec 28             	sub    $0x28,%esp
c00027cd:	8b 45 08             	mov    0x8(%ebp),%eax
c00027d0:	89 44 24 04          	mov    %eax,0x4(%esp)
c00027d4:	c7 04 24 01 00 00 00 	movl   $0x1,(%esp)
c00027db:	e8 16 ff ff ff       	call   c00026f6 <malloc_page>
c00027e0:	89 45 f4             	mov    %eax,-0xc(%ebp)
c00027e3:	83 7d f4 00          	cmpl   $0x0,-0xc(%ebp)
c00027e7:	74 1d                	je     c0002806 <get_kernel_pages+0x3f>
c00027e9:	8b 45 08             	mov    0x8(%ebp),%eax
c00027ec:	c1 e0 0c             	shl    $0xc,%eax
c00027ef:	89 44 24 08          	mov    %eax,0x8(%esp)
c00027f3:	c7 44 24 04 00 00 00 	movl   $0x0,0x4(%esp)
c00027fa:	00 
c00027fb:	8b 45 f4             	mov    -0xc(%ebp),%eax
c00027fe:	89 04 24             	mov    %eax,(%esp)
c0002801:	e8 46 f8 ff ff       	call   c000204c <memset>
c0002806:	8b 45 f4             	mov    -0xc(%ebp),%eax
c0002809:	c9                   	leave  
c000280a:	c3                   	ret    

c000280b <mem_pool_init>:
c000280b:	55                   	push   %ebp
c000280c:	89 e5                	mov    %esp,%ebp
c000280e:	83 ec 48             	sub    $0x48,%esp
c0002811:	c7 04 24 45 35 00 c0 	movl   $0xc0003545,(%esp)
c0002818:	e8 05 f7 ff ff       	call   c0001f22 <put_str>
c000281d:	c7 45 d4 00 00 10 00 	movl   $0x100000,-0x2c(%ebp)
c0002824:	8b 45 d4             	mov    -0x2c(%ebp),%eax
c0002827:	05 00 00 10 00       	add    $0x100000,%eax
c000282c:	89 45 d8             	mov    %eax,-0x28(%ebp)
c000282f:	8b 45 d8             	mov    -0x28(%ebp),%eax
c0002832:	8b 55 08             	mov    0x8(%ebp),%edx
c0002835:	89 d1                	mov    %edx,%ecx
c0002837:	29 c1                	sub    %eax,%ecx
c0002839:	89 c8                	mov    %ecx,%eax
c000283b:	89 45 dc             	mov    %eax,-0x24(%ebp)
c000283e:	8b 45 dc             	mov    -0x24(%ebp),%eax
c0002841:	c1 e8 0c             	shr    $0xc,%eax
c0002844:	66 89 45 e2          	mov    %ax,-0x1e(%ebp)
c0002848:	0f b7 45 e2          	movzwl -0x1e(%ebp),%eax
c000284c:	66 d1 e8             	shr    %ax
c000284f:	66 89 45 e4          	mov    %ax,-0x1c(%ebp)
c0002853:	0f b7 45 e4          	movzwl -0x1c(%ebp),%eax
c0002857:	0f b7 55 e2          	movzwl -0x1e(%ebp),%edx
c000285b:	89 d1                	mov    %edx,%ecx
c000285d:	66 29 c1             	sub    %ax,%cx
c0002860:	89 c8                	mov    %ecx,%eax
c0002862:	66 89 45 e6          	mov    %ax,-0x1a(%ebp)
c0002866:	0f b7 45 e4          	movzwl -0x1c(%ebp),%eax
c000286a:	66 c1 e8 03          	shr    $0x3,%ax
c000286e:	0f b7 c0             	movzwl %ax,%eax
c0002871:	89 45 e8             	mov    %eax,-0x18(%ebp)
c0002874:	0f b7 45 e6          	movzwl -0x1a(%ebp),%eax
c0002878:	66 c1 e8 03          	shr    $0x3,%ax
c000287c:	0f b7 c0             	movzwl %ax,%eax
c000287f:	89 45 ec             	mov    %eax,-0x14(%ebp)
c0002882:	8b 45 d8             	mov    -0x28(%ebp),%eax
c0002885:	89 45 f0             	mov    %eax,-0x10(%ebp)
c0002888:	0f b7 45 e4          	movzwl -0x1c(%ebp),%eax
c000288c:	c1 e0 0c             	shl    $0xc,%eax
c000288f:	03 45 f0             	add    -0x10(%ebp),%eax
c0002892:	89 45 f4             	mov    %eax,-0xc(%ebp)
c0002895:	8b 45 f0             	mov    -0x10(%ebp),%eax
c0002898:	a3 a8 4a 00 c0       	mov    %eax,0xc0004aa8
c000289d:	8b 45 f4             	mov    -0xc(%ebp),%eax
c00028a0:	a3 8c 4a 00 c0       	mov    %eax,0xc0004a8c
c00028a5:	0f b7 45 e4          	movzwl -0x1c(%ebp),%eax
c00028a9:	c1 e0 0c             	shl    $0xc,%eax
c00028ac:	a3 ac 4a 00 c0       	mov    %eax,0xc0004aac
c00028b1:	0f b7 45 e6          	movzwl -0x1a(%ebp),%eax
c00028b5:	c1 e0 0c             	shl    $0xc,%eax
c00028b8:	a3 90 4a 00 c0       	mov    %eax,0xc0004a90
c00028bd:	8b 45 e8             	mov    -0x18(%ebp),%eax
c00028c0:	a3 a0 4a 00 c0       	mov    %eax,0xc0004aa0
c00028c5:	8b 45 ec             	mov    -0x14(%ebp),%eax
c00028c8:	a3 84 4a 00 c0       	mov    %eax,0xc0004a84
c00028cd:	c7 05 a4 4a 00 c0 00 	movl   $0xc009a000,0xc0004aa4
c00028d4:	a0 09 c0 
c00028d7:	8b 45 e8             	mov    -0x18(%ebp),%eax
c00028da:	2d 00 60 f6 3f       	sub    $0x3ff66000,%eax
c00028df:	a3 88 4a 00 c0       	mov    %eax,0xc0004a88
c00028e4:	c7 04 24 60 35 00 c0 	movl   $0xc0003560,(%esp)
c00028eb:	e8 32 f6 ff ff       	call   c0001f22 <put_str>
c00028f0:	c7 04 24 00 a0 09 c0 	movl   $0xc009a000,(%esp)
c00028f7:	e8 42 f6 ff ff       	call   c0001f3e <put_int>
c00028fc:	c7 04 24 0a 00 00 00 	movl   $0xa,(%esp)
c0002903:	e8 28 f5 ff ff       	call   c0001e30 <put_char>
c0002908:	c7 04 24 80 35 00 c0 	movl   $0xc0003580,(%esp)
c000290f:	e8 0e f6 ff ff       	call   c0001f22 <put_str>
c0002914:	a1 a8 4a 00 c0       	mov    0xc0004aa8,%eax
c0002919:	89 04 24             	mov    %eax,(%esp)
c000291c:	e8 1d f6 ff ff       	call   c0001f3e <put_int>
c0002921:	c7 04 24 0a 00 00 00 	movl   $0xa,(%esp)
c0002928:	e8 03 f5 ff ff       	call   c0001e30 <put_char>
c000292d:	c7 04 24 a4 35 00 c0 	movl   $0xc00035a4,(%esp)
c0002934:	e8 e9 f5 ff ff       	call   c0001f22 <put_str>
c0002939:	a1 88 4a 00 c0       	mov    0xc0004a88,%eax
c000293e:	89 04 24             	mov    %eax,(%esp)
c0002941:	e8 f8 f5 ff ff       	call   c0001f3e <put_int>
c0002946:	c7 04 24 0a 00 00 00 	movl   $0xa,(%esp)
c000294d:	e8 de f4 ff ff       	call   c0001e30 <put_char>
c0002952:	c7 04 24 c4 35 00 c0 	movl   $0xc00035c4,(%esp)
c0002959:	e8 c4 f5 ff ff       	call   c0001f22 <put_str>
c000295e:	a1 8c 4a 00 c0       	mov    0xc0004a8c,%eax
c0002963:	89 04 24             	mov    %eax,(%esp)
c0002966:	e8 d3 f5 ff ff       	call   c0001f3e <put_int>
c000296b:	c7 04 24 0a 00 00 00 	movl   $0xa,(%esp)
c0002972:	e8 b9 f4 ff ff       	call   c0001e30 <put_char>
c0002977:	c7 04 24 a0 4a 00 c0 	movl   $0xc0004aa0,(%esp)
c000297e:	e8 81 00 00 00       	call   c0002a04 <bitmap_init>
c0002983:	c7 04 24 84 4a 00 c0 	movl   $0xc0004a84,(%esp)
c000298a:	e8 75 00 00 00       	call   c0002a04 <bitmap_init>
c000298f:	8b 45 e8             	mov    -0x18(%ebp),%eax
c0002992:	a3 94 4a 00 c0       	mov    %eax,0xc0004a94
c0002997:	8b 45 ec             	mov    -0x14(%ebp),%eax
c000299a:	8b 55 e8             	mov    -0x18(%ebp),%edx
c000299d:	8d 04 02             	lea    (%edx,%eax,1),%eax
c00029a0:	2d 00 60 f6 3f       	sub    $0x3ff66000,%eax
c00029a5:	a3 98 4a 00 c0       	mov    %eax,0xc0004a98
c00029aa:	c7 05 9c 4a 00 c0 00 	movl   $0xc0100000,0xc0004a9c
c00029b1:	00 10 c0 
c00029b4:	c7 04 24 94 4a 00 c0 	movl   $0xc0004a94,(%esp)
c00029bb:	e8 44 00 00 00       	call   c0002a04 <bitmap_init>
c00029c0:	c7 04 24 e6 35 00 c0 	movl   $0xc00035e6,(%esp)
c00029c7:	e8 56 f5 ff ff       	call   c0001f22 <put_str>
c00029cc:	c9                   	leave  
c00029cd:	c3                   	ret    

c00029ce <mem_init>:
c00029ce:	55                   	push   %ebp
c00029cf:	89 e5                	mov    %esp,%ebp
c00029d1:	83 ec 28             	sub    $0x28,%esp
c00029d4:	c7 04 24 fd 35 00 c0 	movl   $0xc00035fd,(%esp)
c00029db:	e8 42 f5 ff ff       	call   c0001f22 <put_str>
c00029e0:	b8 00 0b 00 00       	mov    $0xb00,%eax
c00029e5:	8b 00                	mov    (%eax),%eax
c00029e7:	89 45 f4             	mov    %eax,-0xc(%ebp)
c00029ea:	8b 45 f4             	mov    -0xc(%ebp),%eax
c00029ed:	89 04 24             	mov    %eax,(%esp)
c00029f0:	e8 16 fe ff ff       	call   c000280b <mem_pool_init>
c00029f5:	c7 04 24 10 36 00 c0 	movl   $0xc0003610,(%esp)
c00029fc:	e8 21 f5 ff ff       	call   c0001f22 <put_str>
c0002a01:	c9                   	leave  
c0002a02:	c3                   	ret    
c0002a03:	90                   	nop

c0002a04 <bitmap_init>:
c0002a04:	55                   	push   %ebp
c0002a05:	89 e5                	mov    %esp,%ebp
c0002a07:	83 ec 18             	sub    $0x18,%esp
c0002a0a:	8b 45 08             	mov    0x8(%ebp),%eax
c0002a0d:	8b 10                	mov    (%eax),%edx
c0002a0f:	8b 45 08             	mov    0x8(%ebp),%eax
c0002a12:	8b 40 04             	mov    0x4(%eax),%eax
c0002a15:	89 54 24 08          	mov    %edx,0x8(%esp)
c0002a19:	c7 44 24 04 00 00 00 	movl   $0x0,0x4(%esp)
c0002a20:	00 
c0002a21:	89 04 24             	mov    %eax,(%esp)
c0002a24:	e8 23 f6 ff ff       	call   c000204c <memset>
c0002a29:	c9                   	leave  
c0002a2a:	c3                   	ret    

c0002a2b <bitmap_scan_test>:
c0002a2b:	55                   	push   %ebp
c0002a2c:	89 e5                	mov    %esp,%ebp
c0002a2e:	56                   	push   %esi
c0002a2f:	53                   	push   %ebx
c0002a30:	83 ec 10             	sub    $0x10,%esp
c0002a33:	8b 45 0c             	mov    0xc(%ebp),%eax
c0002a36:	c1 e8 03             	shr    $0x3,%eax
c0002a39:	89 45 f0             	mov    %eax,-0x10(%ebp)
c0002a3c:	8b 45 0c             	mov    0xc(%ebp),%eax
c0002a3f:	83 e0 07             	and    $0x7,%eax
c0002a42:	89 45 f4             	mov    %eax,-0xc(%ebp)
c0002a45:	8b 45 08             	mov    0x8(%ebp),%eax
c0002a48:	8b 40 04             	mov    0x4(%eax),%eax
c0002a4b:	03 45 f0             	add    -0x10(%ebp),%eax
c0002a4e:	0f b6 00             	movzbl (%eax),%eax
c0002a51:	0f b6 d0             	movzbl %al,%edx
c0002a54:	8b 45 f4             	mov    -0xc(%ebp),%eax
c0002a57:	bb 01 00 00 00       	mov    $0x1,%ebx
c0002a5c:	89 de                	mov    %ebx,%esi
c0002a5e:	89 c1                	mov    %eax,%ecx
c0002a60:	d3 e6                	shl    %cl,%esi
c0002a62:	89 f0                	mov    %esi,%eax
c0002a64:	21 d0                	and    %edx,%eax
c0002a66:	83 c4 10             	add    $0x10,%esp
c0002a69:	5b                   	pop    %ebx
c0002a6a:	5e                   	pop    %esi
c0002a6b:	5d                   	pop    %ebp
c0002a6c:	c3                   	ret    

c0002a6d <bitmap_scan>:
c0002a6d:	55                   	push   %ebp
c0002a6e:	89 e5                	mov    %esp,%ebp
c0002a70:	53                   	push   %ebx
c0002a71:	83 ec 34             	sub    $0x34,%esp
c0002a74:	c7 45 e0 00 00 00 00 	movl   $0x0,-0x20(%ebp)
c0002a7b:	eb 04                	jmp    c0002a81 <bitmap_scan+0x14>
c0002a7d:	83 45 e0 01          	addl   $0x1,-0x20(%ebp)
c0002a81:	8b 45 08             	mov    0x8(%ebp),%eax
c0002a84:	8b 00                	mov    (%eax),%eax
c0002a86:	3b 45 e0             	cmp    -0x20(%ebp),%eax
c0002a89:	76 10                	jbe    c0002a9b <bitmap_scan+0x2e>
c0002a8b:	8b 45 08             	mov    0x8(%ebp),%eax
c0002a8e:	8b 40 04             	mov    0x4(%eax),%eax
c0002a91:	03 45 e0             	add    -0x20(%ebp),%eax
c0002a94:	0f b6 00             	movzbl (%eax),%eax
c0002a97:	3c ff                	cmp    $0xff,%al
c0002a99:	74 e2                	je     c0002a7d <bitmap_scan+0x10>
c0002a9b:	8b 45 08             	mov    0x8(%ebp),%eax
c0002a9e:	8b 00                	mov    (%eax),%eax
c0002aa0:	3b 45 e0             	cmp    -0x20(%ebp),%eax
c0002aa3:	77 24                	ja     c0002ac9 <bitmap_scan+0x5c>
c0002aa5:	c7 44 24 0c 40 36 00 	movl   $0xc0003640,0xc(%esp)
c0002aac:	c0 
c0002aad:	c7 44 24 08 9c 36 00 	movl   $0xc000369c,0x8(%esp)
c0002ab4:	c0 
c0002ab5:	c7 44 24 04 22 00 00 	movl   $0x22,0x4(%esp)
c0002abc:	00 
c0002abd:	c7 04 24 60 36 00 c0 	movl   $0xc0003660,(%esp)
c0002ac4:	e8 db f4 ff ff       	call   c0001fa4 <panic_spin>
c0002ac9:	8b 45 08             	mov    0x8(%ebp),%eax
c0002acc:	8b 00                	mov    (%eax),%eax
c0002ace:	3b 45 e0             	cmp    -0x20(%ebp),%eax
c0002ad1:	75 0a                	jne    c0002add <bitmap_scan+0x70>
c0002ad3:	b8 ff ff ff ff       	mov    $0xffffffff,%eax
c0002ad8:	e9 be 00 00 00       	jmp    c0002b9b <bitmap_scan+0x12e>
c0002add:	c7 45 e4 00 00 00 00 	movl   $0x0,-0x1c(%ebp)
c0002ae4:	eb 04                	jmp    c0002aea <bitmap_scan+0x7d>
c0002ae6:	83 45 e4 01          	addl   $0x1,-0x1c(%ebp)
c0002aea:	8b 45 08             	mov    0x8(%ebp),%eax
c0002aed:	8b 40 04             	mov    0x4(%eax),%eax
c0002af0:	03 45 e0             	add    -0x20(%ebp),%eax
c0002af3:	0f b6 00             	movzbl (%eax),%eax
c0002af6:	0f b6 d0             	movzbl %al,%edx
c0002af9:	8b 45 e4             	mov    -0x1c(%ebp),%eax
c0002afc:	89 d3                	mov    %edx,%ebx
c0002afe:	89 c1                	mov    %eax,%ecx
c0002b00:	d3 fb                	sar    %cl,%ebx
c0002b02:	89 d8                	mov    %ebx,%eax
c0002b04:	83 e0 01             	and    $0x1,%eax
c0002b07:	84 c0                	test   %al,%al
c0002b09:	75 db                	jne    c0002ae6 <bitmap_scan+0x79>
c0002b0b:	8b 45 e0             	mov    -0x20(%ebp),%eax
c0002b0e:	c1 e0 03             	shl    $0x3,%eax
c0002b11:	03 45 e4             	add    -0x1c(%ebp),%eax
c0002b14:	89 45 e8             	mov    %eax,-0x18(%ebp)
c0002b17:	83 7d 0c 01          	cmpl   $0x1,0xc(%ebp)
c0002b1b:	75 05                	jne    c0002b22 <bitmap_scan+0xb5>
c0002b1d:	8b 45 e8             	mov    -0x18(%ebp),%eax
c0002b20:	eb 79                	jmp    c0002b9b <bitmap_scan+0x12e>
c0002b22:	8b 45 08             	mov    0x8(%ebp),%eax
c0002b25:	8b 00                	mov    (%eax),%eax
c0002b27:	2b 45 e8             	sub    -0x18(%ebp),%eax
c0002b2a:	89 45 ec             	mov    %eax,-0x14(%ebp)
c0002b2d:	8b 45 e8             	mov    -0x18(%ebp),%eax
c0002b30:	83 c0 01             	add    $0x1,%eax
c0002b33:	89 45 f0             	mov    %eax,-0x10(%ebp)
c0002b36:	c7 45 f4 01 00 00 00 	movl   $0x1,-0xc(%ebp)
c0002b3d:	c7 45 e8 ff ff ff ff 	movl   $0xffffffff,-0x18(%ebp)
c0002b44:	eb 43                	jmp    c0002b89 <bitmap_scan+0x11c>
c0002b46:	8b 45 f0             	mov    -0x10(%ebp),%eax
c0002b49:	89 44 24 04          	mov    %eax,0x4(%esp)
c0002b4d:	8b 45 08             	mov    0x8(%ebp),%eax
c0002b50:	89 04 24             	mov    %eax,(%esp)
c0002b53:	e8 d3 fe ff ff       	call   c0002a2b <bitmap_scan_test>
c0002b58:	85 c0                	test   %eax,%eax
c0002b5a:	74 09                	je     c0002b65 <bitmap_scan+0xf8>
c0002b5c:	c7 45 f4 00 00 00 00 	movl   $0x0,-0xc(%ebp)
c0002b63:	eb 04                	jmp    c0002b69 <bitmap_scan+0xfc>
c0002b65:	83 45 f4 01          	addl   $0x1,-0xc(%ebp)
c0002b69:	8b 45 f4             	mov    -0xc(%ebp),%eax
c0002b6c:	3b 45 0c             	cmp    0xc(%ebp),%eax
c0002b6f:	75 14                	jne    c0002b85 <bitmap_scan+0x118>
c0002b71:	8b 45 0c             	mov    0xc(%ebp),%eax
c0002b74:	8b 55 f0             	mov    -0x10(%ebp),%edx
c0002b77:	89 d1                	mov    %edx,%ecx
c0002b79:	29 c1                	sub    %eax,%ecx
c0002b7b:	89 c8                	mov    %ecx,%eax
c0002b7d:	83 c0 01             	add    $0x1,%eax
c0002b80:	89 45 e8             	mov    %eax,-0x18(%ebp)
c0002b83:	eb 13                	jmp    c0002b98 <bitmap_scan+0x12b>
c0002b85:	83 45 f0 01          	addl   $0x1,-0x10(%ebp)
c0002b89:	83 7d ec 00          	cmpl   $0x0,-0x14(%ebp)
c0002b8d:	0f 95 c0             	setne  %al
c0002b90:	83 6d ec 01          	subl   $0x1,-0x14(%ebp)
c0002b94:	84 c0                	test   %al,%al
c0002b96:	75 ae                	jne    c0002b46 <bitmap_scan+0xd9>
c0002b98:	8b 45 e8             	mov    -0x18(%ebp),%eax
c0002b9b:	83 c4 34             	add    $0x34,%esp
c0002b9e:	5b                   	pop    %ebx
c0002b9f:	5d                   	pop    %ebp
c0002ba0:	c3                   	ret    

c0002ba1 <bitmap_set>:
c0002ba1:	55                   	push   %ebp
c0002ba2:	89 e5                	mov    %esp,%ebp
c0002ba4:	57                   	push   %edi
c0002ba5:	56                   	push   %esi
c0002ba6:	53                   	push   %ebx
c0002ba7:	83 ec 3c             	sub    $0x3c,%esp
c0002baa:	8b 45 10             	mov    0x10(%ebp),%eax
c0002bad:	88 45 d4             	mov    %al,-0x2c(%ebp)
c0002bb0:	80 7d d4 00          	cmpb   $0x0,-0x2c(%ebp)
c0002bb4:	74 2a                	je     c0002be0 <bitmap_set+0x3f>
c0002bb6:	80 7d d4 01          	cmpb   $0x1,-0x2c(%ebp)
c0002bba:	74 24                	je     c0002be0 <bitmap_set+0x3f>
c0002bbc:	c7 44 24 0c 74 36 00 	movl   $0xc0003674,0xc(%esp)
c0002bc3:	c0 
c0002bc4:	c7 44 24 08 91 36 00 	movl   $0xc0003691,0x8(%esp)
c0002bcb:	c0 
c0002bcc:	c7 44 24 04 52 00 00 	movl   $0x52,0x4(%esp)
c0002bd3:	00 
c0002bd4:	c7 04 24 60 36 00 c0 	movl   $0xc0003660,(%esp)
c0002bdb:	e8 c4 f3 ff ff       	call   c0001fa4 <panic_spin>
c0002be0:	8b 45 0c             	mov    0xc(%ebp),%eax
c0002be3:	c1 e8 03             	shr    $0x3,%eax
c0002be6:	89 45 e0             	mov    %eax,-0x20(%ebp)
c0002be9:	8b 45 0c             	mov    0xc(%ebp),%eax
c0002bec:	83 e0 07             	and    $0x7,%eax
c0002bef:	89 45 e4             	mov    %eax,-0x1c(%ebp)
c0002bf2:	80 7d d4 00          	cmpb   $0x0,-0x2c(%ebp)
c0002bf6:	74 2d                	je     c0002c25 <bitmap_set+0x84>
c0002bf8:	8b 45 08             	mov    0x8(%ebp),%eax
c0002bfb:	8b 40 04             	mov    0x4(%eax),%eax
c0002bfe:	03 45 e0             	add    -0x20(%ebp),%eax
c0002c01:	8b 55 08             	mov    0x8(%ebp),%edx
c0002c04:	8b 52 04             	mov    0x4(%edx),%edx
c0002c07:	03 55 e0             	add    -0x20(%ebp),%edx
c0002c0a:	0f b6 12             	movzbl (%edx),%edx
c0002c0d:	89 d3                	mov    %edx,%ebx
c0002c0f:	8b 55 e4             	mov    -0x1c(%ebp),%edx
c0002c12:	be 01 00 00 00       	mov    $0x1,%esi
c0002c17:	89 f7                	mov    %esi,%edi
c0002c19:	89 d1                	mov    %edx,%ecx
c0002c1b:	d3 e7                	shl    %cl,%edi
c0002c1d:	89 fa                	mov    %edi,%edx
c0002c1f:	09 da                	or     %ebx,%edx
c0002c21:	88 10                	mov    %dl,(%eax)
c0002c23:	eb 2d                	jmp    c0002c52 <bitmap_set+0xb1>
c0002c25:	8b 45 08             	mov    0x8(%ebp),%eax
c0002c28:	8b 40 04             	mov    0x4(%eax),%eax
c0002c2b:	03 45 e0             	add    -0x20(%ebp),%eax
c0002c2e:	8b 55 08             	mov    0x8(%ebp),%edx
c0002c31:	8b 52 04             	mov    0x4(%edx),%edx
c0002c34:	03 55 e0             	add    -0x20(%ebp),%edx
c0002c37:	0f b6 12             	movzbl (%edx),%edx
c0002c3a:	89 d3                	mov    %edx,%ebx
c0002c3c:	8b 55 e4             	mov    -0x1c(%ebp),%edx
c0002c3f:	be 01 00 00 00       	mov    $0x1,%esi
c0002c44:	89 f7                	mov    %esi,%edi
c0002c46:	89 d1                	mov    %edx,%ecx
c0002c48:	d3 e7                	shl    %cl,%edi
c0002c4a:	89 fa                	mov    %edi,%edx
c0002c4c:	f7 d2                	not    %edx
c0002c4e:	21 da                	and    %ebx,%edx
c0002c50:	88 10                	mov    %dl,(%eax)
c0002c52:	83 c4 3c             	add    $0x3c,%esp
c0002c55:	5b                   	pop    %ebx
c0002c56:	5e                   	pop    %esi
c0002c57:	5f                   	pop    %edi
c0002c58:	5d                   	pop    %ebp
c0002c59:	c3                   	ret    
c0002c5a:	90                   	nop
c0002c5b:	90                   	nop

c0002c5c <running_thread>:
c0002c5c:	55                   	push   %ebp
c0002c5d:	89 e5                	mov    %esp,%ebp
c0002c5f:	83 ec 10             	sub    $0x10,%esp
c0002c62:	89 65 fc             	mov    %esp,-0x4(%ebp)
c0002c65:	8b 45 fc             	mov    -0x4(%ebp),%eax
c0002c68:	25 00 f0 ff ff       	and    $0xfffff000,%eax
c0002c6d:	c9                   	leave  
c0002c6e:	c3                   	ret    

c0002c6f <kernel_thread>:
c0002c6f:	55                   	push   %ebp
c0002c70:	89 e5                	mov    %esp,%ebp
c0002c72:	83 ec 18             	sub    $0x18,%esp
c0002c75:	e8 67 e9 ff ff       	call   c00015e1 <intr_enable>
c0002c7a:	8b 45 0c             	mov    0xc(%ebp),%eax
c0002c7d:	89 04 24             	mov    %eax,(%esp)
c0002c80:	8b 45 08             	mov    0x8(%ebp),%eax
c0002c83:	ff d0                	call   *%eax
c0002c85:	c9                   	leave  
c0002c86:	c3                   	ret    

c0002c87 <init_thread>:
c0002c87:	55                   	push   %ebp
c0002c88:	89 e5                	mov    %esp,%ebp
c0002c8a:	83 ec 18             	sub    $0x18,%esp
c0002c8d:	c7 44 24 08 38 00 00 	movl   $0x38,0x8(%esp)
c0002c94:	00 
c0002c95:	c7 44 24 04 00 00 00 	movl   $0x0,0x4(%esp)
c0002c9c:	00 
c0002c9d:	8b 45 08             	mov    0x8(%ebp),%eax
c0002ca0:	89 04 24             	mov    %eax,(%esp)
c0002ca3:	e8 a4 f3 ff ff       	call   c000204c <memset>
c0002ca8:	8b 45 08             	mov    0x8(%ebp),%eax
c0002cab:	8d 50 08             	lea    0x8(%eax),%edx
c0002cae:	8b 45 0c             	mov    0xc(%ebp),%eax
c0002cb1:	89 44 24 04          	mov    %eax,0x4(%esp)
c0002cb5:	89 14 24             	mov    %edx,(%esp)
c0002cb8:	e8 e3 f4 ff ff       	call   c00021a0 <strcpy>
c0002cbd:	a1 d0 4a 00 c0       	mov    0xc0004ad0,%eax
c0002cc2:	39 45 08             	cmp    %eax,0x8(%ebp)
c0002cc5:	75 0c                	jne    c0002cd3 <init_thread+0x4c>
c0002cc7:	8b 45 08             	mov    0x8(%ebp),%eax
c0002cca:	c7 40 04 00 00 00 00 	movl   $0x0,0x4(%eax)
c0002cd1:	eb 0a                	jmp    c0002cdd <init_thread+0x56>
c0002cd3:	8b 45 08             	mov    0x8(%ebp),%eax
c0002cd6:	c7 40 04 01 00 00 00 	movl   $0x1,0x4(%eax)
c0002cdd:	8b 45 10             	mov    0x10(%ebp),%eax
c0002ce0:	89 c2                	mov    %eax,%edx
c0002ce2:	8b 45 08             	mov    0x8(%ebp),%eax
c0002ce5:	88 50 18             	mov    %dl,0x18(%eax)
c0002ce8:	8b 45 08             	mov    0x8(%ebp),%eax
c0002ceb:	05 00 10 00 00       	add    $0x1000,%eax
c0002cf0:	89 c2                	mov    %eax,%edx
c0002cf2:	8b 45 08             	mov    0x8(%ebp),%eax
c0002cf5:	89 10                	mov    %edx,(%eax)
c0002cf7:	8b 45 08             	mov    0x8(%ebp),%eax
c0002cfa:	c7 40 34 16 09 87 19 	movl   $0x19870916,0x34(%eax)
c0002d01:	8b 45 10             	mov    0x10(%ebp),%eax
c0002d04:	89 c2                	mov    %eax,%edx
c0002d06:	8b 45 08             	mov    0x8(%ebp),%eax
c0002d09:	88 50 19             	mov    %dl,0x19(%eax)
c0002d0c:	8b 45 08             	mov    0x8(%ebp),%eax
c0002d0f:	c7 40 1c 00 00 00 00 	movl   $0x0,0x1c(%eax)
c0002d16:	8b 45 08             	mov    0x8(%ebp),%eax
c0002d19:	c7 40 30 00 00 00 00 	movl   $0x0,0x30(%eax)
c0002d20:	c9                   	leave  
c0002d21:	c3                   	ret    

c0002d22 <thread_create>:
c0002d22:	55                   	push   %ebp
c0002d23:	89 e5                	mov    %esp,%ebp
c0002d25:	83 ec 10             	sub    $0x10,%esp
c0002d28:	8b 45 08             	mov    0x8(%ebp),%eax
c0002d2b:	8b 00                	mov    (%eax),%eax
c0002d2d:	8d 90 d0 fe ff ff    	lea    -0x130(%eax),%edx
c0002d33:	8b 45 08             	mov    0x8(%ebp),%eax
c0002d36:	89 10                	mov    %edx,(%eax)
c0002d38:	8b 45 08             	mov    0x8(%ebp),%eax
c0002d3b:	8b 00                	mov    (%eax),%eax
c0002d3d:	8d 50 80             	lea    -0x80(%eax),%edx
c0002d40:	8b 45 08             	mov    0x8(%ebp),%eax
c0002d43:	89 10                	mov    %edx,(%eax)
c0002d45:	8b 45 08             	mov    0x8(%ebp),%eax
c0002d48:	8b 00                	mov    (%eax),%eax
c0002d4a:	89 45 fc             	mov    %eax,-0x4(%ebp)
c0002d4d:	8b 45 fc             	mov    -0x4(%ebp),%eax
c0002d50:	c7 40 10 6f 2c 00 c0 	movl   $0xc0002c6f,0x10(%eax)
c0002d57:	8b 45 fc             	mov    -0x4(%ebp),%eax
c0002d5a:	8b 55 0c             	mov    0xc(%ebp),%edx
c0002d5d:	89 50 18             	mov    %edx,0x18(%eax)
c0002d60:	8b 45 fc             	mov    -0x4(%ebp),%eax
c0002d63:	8b 55 10             	mov    0x10(%ebp),%edx
c0002d66:	89 50 1c             	mov    %edx,0x1c(%eax)
c0002d69:	8b 45 fc             	mov    -0x4(%ebp),%eax
c0002d6c:	c7 00 00 00 00 00    	movl   $0x0,(%eax)
c0002d72:	8b 45 fc             	mov    -0x4(%ebp),%eax
c0002d75:	c7 40 04 00 00 00 00 	movl   $0x0,0x4(%eax)
c0002d7c:	8b 45 fc             	mov    -0x4(%ebp),%eax
c0002d7f:	c7 40 08 00 00 00 00 	movl   $0x0,0x8(%eax)
c0002d86:	8b 45 fc             	mov    -0x4(%ebp),%eax
c0002d89:	c7 40 0c 00 00 00 00 	movl   $0x0,0xc(%eax)
c0002d90:	c9                   	leave  
c0002d91:	c3                   	ret    

c0002d92 <thread_start>:
c0002d92:	55                   	push   %ebp
c0002d93:	89 e5                	mov    %esp,%ebp
c0002d95:	83 ec 28             	sub    $0x28,%esp
c0002d98:	c7 04 24 01 00 00 00 	movl   $0x1,(%esp)
c0002d9f:	e8 23 fa ff ff       	call   c00027c7 <get_kernel_pages>
c0002da4:	89 45 f4             	mov    %eax,-0xc(%ebp)
c0002da7:	8b 45 0c             	mov    0xc(%ebp),%eax
c0002daa:	89 44 24 08          	mov    %eax,0x8(%esp)
c0002dae:	8b 45 08             	mov    0x8(%ebp),%eax
c0002db1:	89 44 24 04          	mov    %eax,0x4(%esp)
c0002db5:	8b 45 f4             	mov    -0xc(%ebp),%eax
c0002db8:	89 04 24             	mov    %eax,(%esp)
c0002dbb:	e8 c7 fe ff ff       	call   c0002c87 <init_thread>
c0002dc0:	8b 45 14             	mov    0x14(%ebp),%eax
c0002dc3:	89 44 24 08          	mov    %eax,0x8(%esp)
c0002dc7:	8b 45 10             	mov    0x10(%ebp),%eax
c0002dca:	89 44 24 04          	mov    %eax,0x4(%esp)
c0002dce:	8b 45 f4             	mov    -0xc(%ebp),%eax
c0002dd1:	89 04 24             	mov    %eax,(%esp)
c0002dd4:	e8 49 ff ff ff       	call   c0002d22 <thread_create>
c0002dd9:	8b 45 f4             	mov    -0xc(%ebp),%eax
c0002ddc:	83 c0 20             	add    $0x20,%eax
c0002ddf:	89 44 24 04          	mov    %eax,0x4(%esp)
c0002de3:	c7 04 24 b0 4a 00 c0 	movl   $0xc0004ab0,(%esp)
c0002dea:	e8 ce 02 00 00       	call   c00030bd <elem_find>
c0002def:	85 c0                	test   %eax,%eax
c0002df1:	74 24                	je     c0002e17 <thread_start+0x85>
c0002df3:	c7 44 24 0c a8 36 00 	movl   $0xc00036a8,0xc(%esp)
c0002dfa:	c0 
c0002dfb:	c7 44 24 08 76 37 00 	movl   $0xc0003776,0x8(%esp)
c0002e02:	c0 
c0002e03:	c7 44 24 04 60 00 00 	movl   $0x60,0x4(%esp)
c0002e0a:	00 
c0002e0b:	c7 04 24 dd 36 00 c0 	movl   $0xc00036dd,(%esp)
c0002e12:	e8 8d f1 ff ff       	call   c0001fa4 <panic_spin>
c0002e17:	8b 45 f4             	mov    -0xc(%ebp),%eax
c0002e1a:	83 c0 20             	add    $0x20,%eax
c0002e1d:	89 44 24 04          	mov    %eax,0x4(%esp)
c0002e21:	c7 04 24 b0 4a 00 c0 	movl   $0xc0004ab0,(%esp)
c0002e28:	e8 73 01 00 00       	call   c0002fa0 <list_append>
c0002e2d:	8b 45 f4             	mov    -0xc(%ebp),%eax
c0002e30:	83 c0 28             	add    $0x28,%eax
c0002e33:	89 44 24 04          	mov    %eax,0x4(%esp)
c0002e37:	c7 04 24 c0 4a 00 c0 	movl   $0xc0004ac0,(%esp)
c0002e3e:	e8 7a 02 00 00       	call   c00030bd <elem_find>
c0002e43:	85 c0                	test   %eax,%eax
c0002e45:	74 24                	je     c0002e6b <thread_start+0xd9>
c0002e47:	c7 44 24 0c f0 36 00 	movl   $0xc00036f0,0xc(%esp)
c0002e4e:	c0 
c0002e4f:	c7 44 24 08 76 37 00 	movl   $0xc0003776,0x8(%esp)
c0002e56:	c0 
c0002e57:	c7 44 24 04 65 00 00 	movl   $0x65,0x4(%esp)
c0002e5e:	00 
c0002e5f:	c7 04 24 dd 36 00 c0 	movl   $0xc00036dd,(%esp)
c0002e66:	e8 39 f1 ff ff       	call   c0001fa4 <panic_spin>
c0002e6b:	8b 45 f4             	mov    -0xc(%ebp),%eax
c0002e6e:	83 c0 28             	add    $0x28,%eax
c0002e71:	89 44 24 04          	mov    %eax,0x4(%esp)
c0002e75:	c7 04 24 c0 4a 00 c0 	movl   $0xc0004ac0,(%esp)
c0002e7c:	e8 1f 01 00 00       	call   c0002fa0 <list_append>
c0002e81:	8b 45 f4             	mov    -0xc(%ebp),%eax
c0002e84:	c9                   	leave  
c0002e85:	c3                   	ret    

c0002e86 <make_main_thread>:
c0002e86:	55                   	push   %ebp
c0002e87:	89 e5                	mov    %esp,%ebp
c0002e89:	83 ec 18             	sub    $0x18,%esp
c0002e8c:	e8 cb fd ff ff       	call   c0002c5c <running_thread>
c0002e91:	a3 d0 4a 00 c0       	mov    %eax,0xc0004ad0
c0002e96:	a1 d0 4a 00 c0       	mov    0xc0004ad0,%eax
c0002e9b:	c7 44 24 08 1f 00 00 	movl   $0x1f,0x8(%esp)
c0002ea2:	00 
c0002ea3:	c7 44 24 04 24 37 00 	movl   $0xc0003724,0x4(%esp)
c0002eaa:	c0 
c0002eab:	89 04 24             	mov    %eax,(%esp)
c0002eae:	e8 d4 fd ff ff       	call   c0002c87 <init_thread>
c0002eb3:	a1 d0 4a 00 c0       	mov    0xc0004ad0,%eax
c0002eb8:	83 c0 28             	add    $0x28,%eax
c0002ebb:	89 44 24 04          	mov    %eax,0x4(%esp)
c0002ebf:	c7 04 24 c0 4a 00 c0 	movl   $0xc0004ac0,(%esp)
c0002ec6:	e8 f2 01 00 00       	call   c00030bd <elem_find>
c0002ecb:	85 c0                	test   %eax,%eax
c0002ecd:	74 24                	je     c0002ef3 <make_main_thread+0x6d>
c0002ecf:	c7 44 24 0c 2c 37 00 	movl   $0xc000372c,0xc(%esp)
c0002ed6:	c0 
c0002ed7:	c7 44 24 08 65 37 00 	movl   $0xc0003765,0x8(%esp)
c0002ede:	c0 
c0002edf:	c7 44 24 04 76 00 00 	movl   $0x76,0x4(%esp)
c0002ee6:	00 
c0002ee7:	c7 04 24 dd 36 00 c0 	movl   $0xc00036dd,(%esp)
c0002eee:	e8 b1 f0 ff ff       	call   c0001fa4 <panic_spin>
c0002ef3:	a1 d0 4a 00 c0       	mov    0xc0004ad0,%eax
c0002ef8:	83 c0 28             	add    $0x28,%eax
c0002efb:	89 44 24 04          	mov    %eax,0x4(%esp)
c0002eff:	c7 04 24 c0 4a 00 c0 	movl   $0xc0004ac0,(%esp)
c0002f06:	e8 95 00 00 00       	call   c0002fa0 <list_append>
c0002f0b:	c9                   	leave  
c0002f0c:	c3                   	ret    
c0002f0d:	90                   	nop
c0002f0e:	90                   	nop
c0002f0f:	90                   	nop

c0002f10 <list_init>:
c0002f10:	55                   	push   %ebp
c0002f11:	89 e5                	mov    %esp,%ebp
c0002f13:	8b 45 08             	mov    0x8(%ebp),%eax
c0002f16:	c7 00 00 00 00 00    	movl   $0x0,(%eax)
c0002f1c:	8b 45 08             	mov    0x8(%ebp),%eax
c0002f1f:	8d 50 08             	lea    0x8(%eax),%edx
c0002f22:	8b 45 08             	mov    0x8(%ebp),%eax
c0002f25:	89 50 04             	mov    %edx,0x4(%eax)
c0002f28:	8b 55 08             	mov    0x8(%ebp),%edx
c0002f2b:	8b 45 08             	mov    0x8(%ebp),%eax
c0002f2e:	89 50 08             	mov    %edx,0x8(%eax)
c0002f31:	8b 45 08             	mov    0x8(%ebp),%eax
c0002f34:	c7 40 0c 00 00 00 00 	movl   $0x0,0xc(%eax)
c0002f3b:	5d                   	pop    %ebp
c0002f3c:	c3                   	ret    

c0002f3d <list_insert_before>:
c0002f3d:	55                   	push   %ebp
c0002f3e:	89 e5                	mov    %esp,%ebp
c0002f40:	83 ec 28             	sub    $0x28,%esp
c0002f43:	e8 b5 e6 ff ff       	call   c00015fd <intr_disable>
c0002f48:	89 45 f4             	mov    %eax,-0xc(%ebp)
c0002f4b:	8b 45 08             	mov    0x8(%ebp),%eax
c0002f4e:	8b 00                	mov    (%eax),%eax
c0002f50:	8b 55 0c             	mov    0xc(%ebp),%edx
c0002f53:	89 50 04             	mov    %edx,0x4(%eax)
c0002f56:	8b 45 08             	mov    0x8(%ebp),%eax
c0002f59:	8b 10                	mov    (%eax),%edx
c0002f5b:	8b 45 0c             	mov    0xc(%ebp),%eax
c0002f5e:	89 10                	mov    %edx,(%eax)
c0002f60:	8b 45 08             	mov    0x8(%ebp),%eax
c0002f63:	8b 55 0c             	mov    0xc(%ebp),%edx
c0002f66:	89 10                	mov    %edx,(%eax)
c0002f68:	8b 45 0c             	mov    0xc(%ebp),%eax
c0002f6b:	8b 55 08             	mov    0x8(%ebp),%edx
c0002f6e:	89 50 04             	mov    %edx,0x4(%eax)
c0002f71:	8b 45 f4             	mov    -0xc(%ebp),%eax
c0002f74:	89 04 24             	mov    %eax,(%esp)
c0002f77:	e8 47 e6 ff ff       	call   c00015c3 <intr_set_status>
c0002f7c:	c9                   	leave  
c0002f7d:	c3                   	ret    

c0002f7e <list_push>:
c0002f7e:	55                   	push   %ebp
c0002f7f:	89 e5                	mov    %esp,%ebp
c0002f81:	83 ec 18             	sub    $0x18,%esp
c0002f84:	8b 45 08             	mov    0x8(%ebp),%eax
c0002f87:	8b 40 04             	mov    0x4(%eax),%eax
c0002f8a:	8b 55 0c             	mov    0xc(%ebp),%edx
c0002f8d:	89 54 24 04          	mov    %edx,0x4(%esp)
c0002f91:	89 04 24             	mov    %eax,(%esp)
c0002f94:	e8 a4 ff ff ff       	call   c0002f3d <list_insert_before>
c0002f99:	c9                   	leave  
c0002f9a:	c3                   	ret    

c0002f9b <list_iterate>:
c0002f9b:	55                   	push   %ebp
c0002f9c:	89 e5                	mov    %esp,%ebp
c0002f9e:	5d                   	pop    %ebp
c0002f9f:	c3                   	ret    

c0002fa0 <list_append>:
c0002fa0:	55                   	push   %ebp
c0002fa1:	89 e5                	mov    %esp,%ebp
c0002fa3:	83 ec 18             	sub    $0x18,%esp
c0002fa6:	8b 45 08             	mov    0x8(%ebp),%eax
c0002fa9:	8d 50 08             	lea    0x8(%eax),%edx
c0002fac:	8b 45 0c             	mov    0xc(%ebp),%eax
c0002faf:	89 44 24 04          	mov    %eax,0x4(%esp)
c0002fb3:	89 14 24             	mov    %edx,(%esp)
c0002fb6:	e8 82 ff ff ff       	call   c0002f3d <list_insert_before>
c0002fbb:	c9                   	leave  
c0002fbc:	c3                   	ret    

c0002fbd <list_remove>:
c0002fbd:	55                   	push   %ebp
c0002fbe:	89 e5                	mov    %esp,%ebp
c0002fc0:	83 ec 28             	sub    $0x28,%esp
c0002fc3:	e8 35 e6 ff ff       	call   c00015fd <intr_disable>
c0002fc8:	89 45 f4             	mov    %eax,-0xc(%ebp)
c0002fcb:	8b 45 08             	mov    0x8(%ebp),%eax
c0002fce:	8b 00                	mov    (%eax),%eax
c0002fd0:	8b 55 08             	mov    0x8(%ebp),%edx
c0002fd3:	8b 52 04             	mov    0x4(%edx),%edx
c0002fd6:	89 50 04             	mov    %edx,0x4(%eax)
c0002fd9:	8b 45 08             	mov    0x8(%ebp),%eax
c0002fdc:	8b 40 04             	mov    0x4(%eax),%eax
c0002fdf:	8b 55 08             	mov    0x8(%ebp),%edx
c0002fe2:	8b 12                	mov    (%edx),%edx
c0002fe4:	89 10                	mov    %edx,(%eax)
c0002fe6:	8b 45 f4             	mov    -0xc(%ebp),%eax
c0002fe9:	89 04 24             	mov    %eax,(%esp)
c0002fec:	e8 d2 e5 ff ff       	call   c00015c3 <intr_set_status>
c0002ff1:	c9                   	leave  
c0002ff2:	c3                   	ret    

c0002ff3 <list_pop>:
c0002ff3:	55                   	push   %ebp
c0002ff4:	89 e5                	mov    %esp,%ebp
c0002ff6:	83 ec 28             	sub    $0x28,%esp
c0002ff9:	8b 45 08             	mov    0x8(%ebp),%eax
c0002ffc:	8b 40 04             	mov    0x4(%eax),%eax
c0002fff:	89 45 f4             	mov    %eax,-0xc(%ebp)
c0003002:	8b 45 f4             	mov    -0xc(%ebp),%eax
c0003005:	89 04 24             	mov    %eax,(%esp)
c0003008:	e8 b0 ff ff ff       	call   c0002fbd <list_remove>
c000300d:	8b 45 f4             	mov    -0xc(%ebp),%eax
c0003010:	c9                   	leave  
c0003011:	c3                   	ret    

c0003012 <list_empty>:
c0003012:	55                   	push   %ebp
c0003013:	89 e5                	mov    %esp,%ebp
c0003015:	8b 45 08             	mov    0x8(%ebp),%eax
c0003018:	8b 40 04             	mov    0x4(%eax),%eax
c000301b:	8b 55 08             	mov    0x8(%ebp),%edx
c000301e:	83 c2 08             	add    $0x8,%edx
c0003021:	39 d0                	cmp    %edx,%eax
c0003023:	0f 94 c0             	sete   %al
c0003026:	0f b6 c0             	movzbl %al,%eax
c0003029:	5d                   	pop    %ebp
c000302a:	c3                   	ret    

c000302b <list_len>:
c000302b:	55                   	push   %ebp
c000302c:	89 e5                	mov    %esp,%ebp
c000302e:	83 ec 10             	sub    $0x10,%esp
c0003031:	8b 45 08             	mov    0x8(%ebp),%eax
c0003034:	8b 40 04             	mov    0x4(%eax),%eax
c0003037:	89 45 f8             	mov    %eax,-0x8(%ebp)
c000303a:	c7 45 fc 00 00 00 00 	movl   $0x0,-0x4(%ebp)
c0003041:	eb 0d                	jmp    c0003050 <list_len+0x25>
c0003043:	83 45 fc 01          	addl   $0x1,-0x4(%ebp)
c0003047:	8b 45 f8             	mov    -0x8(%ebp),%eax
c000304a:	8b 40 04             	mov    0x4(%eax),%eax
c000304d:	89 45 f8             	mov    %eax,-0x8(%ebp)
c0003050:	8b 45 08             	mov    0x8(%ebp),%eax
c0003053:	83 c0 08             	add    $0x8,%eax
c0003056:	3b 45 f8             	cmp    -0x8(%ebp),%eax
c0003059:	75 e8                	jne    c0003043 <list_len+0x18>
c000305b:	8b 45 fc             	mov    -0x4(%ebp),%eax
c000305e:	c9                   	leave  
c000305f:	c3                   	ret    

c0003060 <list_traversal>:
c0003060:	55                   	push   %ebp
c0003061:	89 e5                	mov    %esp,%ebp
c0003063:	83 ec 28             	sub    $0x28,%esp
c0003066:	8b 45 08             	mov    0x8(%ebp),%eax
c0003069:	89 04 24             	mov    %eax,(%esp)
c000306c:	e8 a1 ff ff ff       	call   c0003012 <list_empty>
c0003071:	85 c0                	test   %eax,%eax
c0003073:	74 07                	je     c000307c <list_traversal+0x1c>
c0003075:	b8 00 00 00 00       	mov    $0x0,%eax
c000307a:	eb 3f                	jmp    c00030bb <list_traversal+0x5b>
c000307c:	8b 45 08             	mov    0x8(%ebp),%eax
c000307f:	8b 40 04             	mov    0x4(%eax),%eax
c0003082:	89 45 f4             	mov    %eax,-0xc(%ebp)
c0003085:	eb 24                	jmp    c00030ab <list_traversal+0x4b>
c0003087:	8b 45 10             	mov    0x10(%ebp),%eax
c000308a:	89 44 24 04          	mov    %eax,0x4(%esp)
c000308e:	8b 45 f4             	mov    -0xc(%ebp),%eax
c0003091:	89 04 24             	mov    %eax,(%esp)
c0003094:	8b 45 0c             	mov    0xc(%ebp),%eax
c0003097:	ff d0                	call   *%eax
c0003099:	85 c0                	test   %eax,%eax
c000309b:	74 05                	je     c00030a2 <list_traversal+0x42>
c000309d:	8b 45 f4             	mov    -0xc(%ebp),%eax
c00030a0:	eb 19                	jmp    c00030bb <list_traversal+0x5b>
c00030a2:	8b 45 f4             	mov    -0xc(%ebp),%eax
c00030a5:	8b 40 04             	mov    0x4(%eax),%eax
c00030a8:	89 45 f4             	mov    %eax,-0xc(%ebp)
c00030ab:	8b 45 08             	mov    0x8(%ebp),%eax
c00030ae:	83 c0 08             	add    $0x8,%eax
c00030b1:	3b 45 f4             	cmp    -0xc(%ebp),%eax
c00030b4:	75 d1                	jne    c0003087 <list_traversal+0x27>
c00030b6:	b8 00 00 00 00       	mov    $0x0,%eax
c00030bb:	c9                   	leave  
c00030bc:	c3                   	ret    

c00030bd <elem_find>:
c00030bd:	55                   	push   %ebp
c00030be:	89 e5                	mov    %esp,%ebp
c00030c0:	83 ec 10             	sub    $0x10,%esp
c00030c3:	8b 45 08             	mov    0x8(%ebp),%eax
c00030c6:	8b 40 04             	mov    0x4(%eax),%eax
c00030c9:	89 45 fc             	mov    %eax,-0x4(%ebp)
c00030cc:	eb 18                	jmp    c00030e6 <elem_find+0x29>
c00030ce:	8b 45 fc             	mov    -0x4(%ebp),%eax
c00030d1:	3b 45 0c             	cmp    0xc(%ebp),%eax
c00030d4:	75 07                	jne    c00030dd <elem_find+0x20>
c00030d6:	b8 01 00 00 00       	mov    $0x1,%eax
c00030db:	eb 19                	jmp    c00030f6 <elem_find+0x39>
c00030dd:	8b 45 fc             	mov    -0x4(%ebp),%eax
c00030e0:	8b 40 04             	mov    0x4(%eax),%eax
c00030e3:	89 45 fc             	mov    %eax,-0x4(%ebp)
c00030e6:	8b 45 08             	mov    0x8(%ebp),%eax
c00030e9:	83 c0 08             	add    $0x8,%eax
c00030ec:	3b 45 fc             	cmp    -0x4(%ebp),%eax
c00030ef:	75 dd                	jne    c00030ce <elem_find+0x11>
c00030f1:	b8 00 00 00 00       	mov    $0x0,%eax
c00030f6:	c9                   	leave  
c00030f7:	c3                   	ret    
